# mark_description "Intel(R) C Intel(R) 64 Compiler Classic for applications running on Intel(R) 64, Version 2021.5.0 Build 2021";
# mark_description "1109_000000";
# mark_description "-I /home/rich/zfs_blake3/include/ -I /home/rich/zfs_blake3/lib/libspl/include/ -finline-functions -c -O3 -mc";
# mark_description "pu=core-avx2 -S -o /tmp/skein_block_icc.S";
	.file "skein_block.c"
	.text
..TXTST0:
.L_2__routine_start_Skein_256_Process_Block_0:
# -- Begin  Skein_256_Process_Block
	.text
# mark_begin;
       .align    16,0x90
	.globl Skein_256_Process_Block
# --- Skein_256_Process_Block(Skein_256_Ctxt_t *, const uint8_t *, size_t, size_t)
Skein_256_Process_Block:
# parameter 1: %rdi
# parameter 2: %rsi
# parameter 3: %rdx
# parameter 4: %rcx
..B1.1:                         # Preds ..B1.0
                                # Execution count [1.00e+00]
	.cfi_startproc
..___tag_value_Skein_256_Process_Block.1:
..L2:
                                                          #69.1
        pushq     %r12                                          #69.1
	.cfi_def_cfa_offset 16
	.cfi_offset 12, -16
        pushq     %r13                                          #69.1
	.cfi_def_cfa_offset 24
	.cfi_offset 13, -24
        pushq     %r14                                          #69.1
	.cfi_def_cfa_offset 32
	.cfi_offset 14, -32
        pushq     %r15                                          #69.1
	.cfi_def_cfa_offset 40
	.cfi_offset 15, -40
        pushq     %rbx                                          #69.1
	.cfi_def_cfa_offset 48
	.cfi_offset 3, -48
        pushq     %rbp                                          #69.1
	.cfi_def_cfa_offset 56
	.cfi_offset 6, -56
        subq      $200, %rsp                                    #69.1
	.cfi_def_cfa_offset 256
        movq      %rdi, %r11                                    #69.1
        movq      %rdx, %r9                                     #69.1
        movq      %rsi, 96(%rsp)                                #69.1[spill]
        movq      %r11, 152(%rsp)                               #116.11[spill]
        movq      24(%r11), %rdi                                #105.10
        movq      16(%r11), %rsi                                #104.10
        movq      56(%r11), %r10                                #117.11
        movq      32(%r11), %r8                                 #114.11
        movq      40(%r11), %rax                                #115.11
        movq      48(%r11), %rdx                                #116.11
        movq      %rdi, 8(%rsp)                                 #105.2
        movq      %r9, 160(%rsp)                                #116.11[spill]
        movq      %rcx, 104(%rsp)                               #116.11[spill]
        jmp       ..B1.2        # Prob 100%                     #116.11
                                # LOE rax rdx rsi rdi r8 r10
..B1.4:                         # Preds ..B1.8
                                # Execution count [4.56e+00]
        movq      %rdi, 8(%rsp)                                 #246.3
                                # LOE rax rdx rsi rdi r8 r10
..B1.2:                         # Preds ..B1.4 ..B1.1
                                # Execution count [5.56e+00]
        movq      %rax, 32(%rsp)                                #115.3
        xorq      %r8, %rax                                     #118.19
        xorq      %rdx, %rax                                    #118.27
        movq      %rdx, 40(%rsp)                                #116.3
        xorq      %r10, %rax                                    #118.35
        movq      $0x1bd11bdaa9fc1a22, %rdx                     #118.43
        xorq      %rdx, %rax                                    #118.43
        movq      %rax, 56(%rsp)                                #118.3
        movq      96(%rsp), %rax                                #123.3[spill]
        addq      104(%rsp), %rsi                               #111.3[spill]
        movq      %rsi, (%rsp)                                  #111.3
        xorq      %rdi, %rsi                                    #120.19
        movq      %rsi, 16(%rsp)                                #120.3
        movq      %r8, 24(%rsp)                                 #114.3
        movq      %r10, 48(%rsp)                                #117.3
        movups    (%rax), %xmm0                                 #123.3
        movups    %xmm0, 64(%rsp)                               #123.3
        movups    16(%rax), %xmm1                               #123.3
        movups    %xmm1, 80(%rsp)                               #123.3
                                # LOE
..B1.3:                         # Preds ..B1.2
                                # Execution count [5.56e+00]
        movq      (%rsp), %rsi                                  #128.23
        movq      32(%rsp), %rbx                                #128.15
        movq      72(%rsp), %rdi                                #128.8
        movq      %rdi, 120(%rsp)                               #128.8[spill]
        movq      24(%rsp), %rbp                                #127.15
        lea       (%rsi,%rbx), %rcx                             #128.15
        movq      40(%rsp), %r10                                #129.15
        lea       (%rdi,%rcx), %rax                             #128.23
        movq      8(%rsp), %rdi                                 #129.23
        movq      88(%rsp), %r9                                 #130.8
        movq      48(%rsp), %r8                                 #130.15
        movq      80(%rsp), %r11                                #129.8
        lea       (%rdi,%r10), %r13                             #129.15
        movq      64(%rsp), %rdx                                #127.8
        movq      %r9, 112(%rsp)                                #130.8[spill]
        lea       (%r9,%r8), %r15                               #130.15
        movq      %rdx, 136(%rsp)                               #127.8[spill]
        lea       (%rax,%rbp), %r9                              #127.15
        addq      %rdx, %r9                                     #184.4
        lea       (%r11,%r13), %rdx                             #129.23
        addq      %r15, %rdx                                    #184.4
        rolq      $16, %r15                                     #184.4
        rolq      $14, %rax                                     #184.4
        xorq      %rdx, %r15                                    #184.4
        xorq      %r9, %rax                                     #184.4
        addq      %r15, %r9                                     #184.4
        rolq      $52, %r15                                     #184.4
        addq      %rax, %rdx                                    #184.4
        rolq      $57, %rax                                     #184.4
        xorq      %r9, %r15                                     #184.4
        xorq      %rdx, %rax                                    #184.4
        addq      %r15, %rdx                                    #184.4
        rolq      $40, %r15                                     #184.4
        addq      %rax, %r9                                     #184.4
        rolq      $23, %rax                                     #184.4
        xorq      %rdx, %r15                                    #184.4
        xorq      %r9, %rax                                     #184.4
        addq      %r15, %r9                                     #184.4
        rolq      $5, %r15                                      #184.4
        addq      %rax, %rdx                                    #184.4
        movq      16(%rsp), %r12                                #184.4
        xorq      %r9, %r15                                     #184.4
        movq      %r11, 128(%rsp)                               #129.8[spill]
        addq      %rbx, %r9                                     #184.4
        movq      56(%rsp), %r11                                #184.4
        rolq      $37, %rax                                     #184.4
        lea       (%r8,%r12), %r14                              #184.4
        xorq      %rdx, %rax                                    #184.4
        addq      %r14, %rdx                                    #184.4
        addq      %r13, %rax                                    #184.4
        lea       1(%r11,%r15), %r15                            #184.4
        addq      %r15, %rdx                                    #184.4
        addq      %rax, %r9                                     #184.4
        rolq      $33, %r15                                     #184.4
        rolq      $25, %rax                                     #184.4
        xorq      %rdx, %r15                                    #184.4
        xorq      %r9, %rax                                     #184.4
        addq      %r15, %r9                                     #184.4
        rolq      $46, %r15                                     #184.4
        addq      %rax, %rdx                                    #184.4
        rolq      $12, %rax                                     #184.4
        xorq      %r9, %r15                                     #184.4
        xorq      %rdx, %rax                                    #184.4
        addq      %r15, %rdx                                    #184.4
        rolq      $22, %r15                                     #184.4
        addq      %rax, %r9                                     #184.4
        rolq      $58, %rax                                     #184.4
        xorq      %rdx, %r15                                    #184.4
        xorq      %r9, %rax                                     #184.4
        addq      %r15, %r9                                     #184.4
        rolq      $32, %r15                                     #184.4
        addq      %rax, %rdx                                    #184.4
        xorq      %r9, %r15                                     #184.4
        addq      %r10, %r9                                     #184.4
        rolq      $32, %rax                                     #184.4
        xorq      %rdx, %rax                                    #184.4
        movq      %r14, 176(%rsp)                               #184.4[spill]
        addq      %r14, %rax                                    #184.4
        addq      %rax, %r9                                     #191.4
        lea       (%rsi,%r11), %r14                             #184.4
        addq      %r14, %rdx                                    #184.4
        lea       2(%rbp,%r15), %r15                            #184.4
        addq      %r15, %rdx                                    #191.4
        rolq      $16, %r15                                     #191.4
        rolq      $14, %rax                                     #191.4
        xorq      %rdx, %r15                                    #191.4
        xorq      %r9, %rax                                     #191.4
        addq      %r15, %r9                                     #191.4
        rolq      $52, %r15                                     #191.4
        addq      %rax, %rdx                                    #191.4
        rolq      $57, %rax                                     #191.4
        xorq      %r9, %r15                                     #191.4
        xorq      %rdx, %rax                                    #191.4
        addq      %r15, %rdx                                    #191.4
        rolq      $40, %r15                                     #191.4
        addq      %rax, %r9                                     #191.4
        rolq      $23, %rax                                     #191.4
        xorq      %rdx, %r15                                    #191.4
        xorq      %r9, %rax                                     #191.4
        addq      %r15, %r9                                     #191.4
        rolq      $5, %r15                                      #191.4
        addq      %rax, %rdx                                    #191.4
        xorq      %r9, %r15                                     #191.4
        addq      %r8, %r9                                      #191.4
        rolq      $37, %rax                                     #191.4
        xorq      %rdx, %rax                                    #191.4
        movq      %r14, 184(%rsp)                               #184.4[spill]
        addq      %r14, %rax                                    #191.4
        addq      %rax, %r9                                     #191.4
        lea       (%rbp,%rdi), %r14                             #191.4
        addq      %r14, %rdx                                    #191.4
        lea       3(%rbx,%r15), %r15                            #191.4
        addq      %r15, %rdx                                    #191.4
        rolq      $33, %r15                                     #191.4
        rolq      $25, %rax                                     #191.4
        xorq      %rdx, %r15                                    #191.4
        xorq      %r9, %rax                                     #191.4
        addq      %r15, %r9                                     #191.4
        rolq      $46, %r15                                     #191.4
        addq      %rax, %rdx                                    #191.4
        rolq      $12, %rax                                     #191.4
        xorq      %r9, %r15                                     #191.4
        xorq      %rdx, %rax                                    #191.4
        addq      %r15, %rdx                                    #191.4
        rolq      $22, %r15                                     #191.4
        addq      %rax, %r9                                     #191.4
        rolq      $58, %rax                                     #191.4
        xorq      %rdx, %r15                                    #191.4
        xorq      %r9, %rax                                     #191.4
        addq      %r15, %r9                                     #191.4
        rolq      $32, %r15                                     #191.4
        addq      %rax, %rdx                                    #191.4
        xorq      %r9, %r15                                     #191.4
        addq      %r11, %r9                                     #191.4
        rolq      $32, %rax                                     #191.4
        xorq      %rdx, %rax                                    #191.4
        .byte     144                                           #191.4
        movq      %r14, 144(%rsp)                               #191.4[spill]
        addq      %r14, %rax                                    #191.4
        addq      %rax, %r9                                     #194.4
        lea       4(%r10,%r15), %r14                            #191.4
        rolq      $14, %rax                                     #194.4
        lea       (%rbx,%r12), %r15                             #191.4
        addq      %r15, %rdx                                    #191.4
        xorq      %r9, %rax                                     #194.4
        addq      %r14, %rdx                                    #194.4
        rolq      $16, %r14                                     #194.4
        xorq      %rdx, %r14                                    #194.4
        addq      %rax, %rdx                                    #194.4
        addq      %r14, %r9                                     #194.4
        rolq      $52, %r14                                     #194.4
        rolq      $57, %rax                                     #194.4
        xorq      %r9, %r14                                     #194.4
        xorq      %rdx, %rax                                    #194.4
        addq      %r14, %rdx                                    #194.4
        rolq      $40, %r14                                     #194.4
        addq      %rax, %r9                                     #194.4
        rolq      $23, %rax                                     #194.4
        xorq      %rdx, %r14                                    #194.4
        xorq      %r9, %rax                                     #194.4
        addq      %r14, %r9                                     #194.4
        rolq      $5, %r14                                      #194.4
        addq      %rax, %rdx                                    #194.4
        xorq      %r9, %r14                                     #194.4
        rolq      $37, %rax                                     #194.4
        xorq      %rdx, %rax                                    #194.4
        addq      %rax, %r15                                    #194.4
        lea       (%rsi,%r10), %rax                             #194.4
        addq      %rax, %rdx                                    #194.4
        lea       5(%r8,%r14), %r14                             #194.4
        addq      %r15, %r9                                     #194.4
        addq      %r14, %rdx                                    #194.4
        rolq      $33, %r14                                     #194.4
        addq      %rbp, %r9                                     #194.4
        rolq      $25, %r15                                     #194.4
        xorq      %rdx, %r14                                    #194.4
        xorq      %r9, %r15                                     #194.4
        addq      %r14, %r9                                     #194.4
        rolq      $46, %r14                                     #194.4
        addq      %r15, %rdx                                    #194.4
        rolq      $12, %r15                                     #194.4
        xorq      %r9, %r14                                     #194.4
        xorq      %rdx, %r15                                    #194.4
        addq      %r14, %rdx                                    #194.4
        rolq      $22, %r14                                     #194.4
        addq      %r15, %r9                                     #194.4
        rolq      $58, %r15                                     #194.4
        xorq      %rdx, %r14                                    #194.4
        xorq      %r9, %r15                                     #194.4
        addq      %r14, %r9                                     #194.4
        rolq      $32, %r14                                     #194.4
        addq      %r15, %rdx                                    #194.4
        xorq      %r9, %r14                                     #194.4
        addq      %rbx, %r9                                     #194.4
        rolq      $32, %r15                                     #194.4
        xorq      %rdx, %r15                                    #194.4
        addq      %r15, %rax                                    #194.4
        addq      %rax, %r9                                     #197.4
        lea       6(%r11,%r14), %r15                            #194.4
        rolq      $14, %rax                                     #197.4
        lea       (%rdi,%r8), %r14                              #194.4
        addq      %r14, %rdx                                    #194.4
        xorq      %r9, %rax                                     #197.4
        addq      %r15, %rdx                                    #197.4
        rolq      $16, %r15                                     #197.4
        xorq      %rdx, %r15                                    #197.4
        addq      %rax, %rdx                                    #197.4
        addq      %r15, %r9                                     #197.4
        rolq      $52, %r15                                     #197.4
        rolq      $57, %rax                                     #197.4
        xorq      %r9, %r15                                     #197.4
        xorq      %rdx, %rax                                    #197.4
        addq      %r15, %rdx                                    #197.4
        rolq      $40, %r15                                     #197.4
        addq      %rax, %r9                                     #197.4
        rolq      $23, %rax                                     #197.4
        xorq      %rdx, %r15                                    #197.4
        xorq      %r9, %rax                                     #197.4
        addq      %r15, %r9                                     #197.4
        rolq      $5, %r15                                      #197.4
        addq      %rax, %rdx                                    #197.4
        xorq      %r9, %r15                                     #197.4
        addq      %r10, %r9                                     #197.4
        rolq      $37, %rax                                     #197.4
        xorq      %rdx, %rax                                    #197.4
        addq      %rax, %r14                                    #197.4
        addq      %r14, %r9                                     #197.4
        lea       7(%rbp,%r15), %rax                            #197.4
        rolq      $25, %r14                                     #197.4
        lea       (%r11,%r12), %r15                             #197.4
        addq      %r15, %rdx                                    #197.4
        xorq      %r9, %r14                                     #197.4
        addq      %rax, %rdx                                    #197.4
        rolq      $33, %rax                                     #197.4
        xorq      %rdx, %rax                                    #197.4
        addq      %r14, %rdx                                    #197.4
        addq      %rax, %r9                                     #197.4
        rolq      $46, %rax                                     #197.4
        rolq      $12, %r14                                     #197.4
        xorq      %r9, %rax                                     #197.4
        xorq      %rdx, %r14                                    #197.4
        addq      %rax, %rdx                                    #197.4
        rolq      $22, %rax                                     #197.4
        addq      %r14, %r9                                     #197.4
        rolq      $58, %r14                                     #197.4
        xorq      %rdx, %rax                                    #197.4
        xorq      %r9, %r14                                     #197.4
        addq      %rax, %r9                                     #197.4
        rolq      $32, %rax                                     #197.4
        addq      %r14, %rdx                                    #197.4
        xorq      %r9, %rax                                     #197.4
        addq      %r8, %r9                                      #197.4
        rolq      $32, %r14                                     #197.4
        xorq      %rdx, %r14                                    #197.4
        addq      %r14, %r15                                    #197.4
        lea       (%rbp,%rsi), %r14                             #197.4
        addq      %r15, %r9                                     #200.4
        lea       8(%rbx,%rax), %rax                            #197.4
        addq      %rax, %rdx                                    #197.4
        rolq      $16, %rax                                     #200.4
        addq      %r14, %rdx                                    #200.4
        rolq      $14, %r15                                     #200.4
        xorq      %rdx, %rax                                    #200.4
        xorq      %r9, %r15                                     #200.4
        addq      %rax, %r9                                     #200.4
        rolq      $52, %rax                                     #200.4
        addq      %r15, %rdx                                    #200.4
        rolq      $57, %r15                                     #200.4
        xorq      %r9, %rax                                     #200.4
        xorq      %rdx, %r15                                    #200.4
        addq      %rax, %rdx                                    #200.4
        rolq      $40, %rax                                     #200.4
        addq      %r15, %r9                                     #200.4
        rolq      $23, %r15                                     #200.4
        xorq      %rdx, %rax                                    #200.4
        xorq      %r9, %r15                                     #200.4
        addq      %rax, %r9                                     #200.4
        rolq      $5, %rax                                      #200.4
        addq      %r15, %rdx                                    #200.4
        xorq      %r9, %rax                                     #200.4
        addq      %r11, %r9                                     #200.4
        rolq      $37, %r15                                     #200.4
        xorq      %rdx, %r15                                    #200.4
        addq      %r15, %r14                                    #200.4
        addq      %r14, %r9                                     #200.4
        lea       9(%r10,%rax), %r15                            #200.4
        rolq      $25, %r14                                     #200.4
        lea       (%rdi,%rbx), %rax                             #200.4
        addq      %rax, %rdx                                    #200.4
        xorq      %r9, %r14                                     #200.4
        addq      %r15, %rdx                                    #200.4
        rolq      $33, %r15                                     #200.4
        xorq      %rdx, %r15                                    #200.4
        addq      %r14, %rdx                                    #200.4
        addq      %r15, %r9                                     #200.4
        rolq      $46, %r15                                     #200.4
        rolq      $12, %r14                                     #200.4
        xorq      %r9, %r15                                     #200.4
        xorq      %rdx, %r14                                    #200.4
        addq      %r15, %rdx                                    #200.4
        rolq      $22, %r15                                     #200.4
        addq      %r14, %r9                                     #200.4
        rolq      $58, %r14                                     #200.4
        xorq      %rdx, %r15                                    #200.4
        xorq      %r9, %r14                                     #200.4
        addq      %r15, %r9                                     #200.4
        rolq      $32, %r15                                     #200.4
        addq      %r14, %rdx                                    #200.4
        xorq      %r9, %r15                                     #200.4
        rolq      $32, %r14                                     #200.4
        xorq      %rdx, %r14                                    #200.4
        addq      %r14, %rax                                    #200.4
        lea       (%r10,%r12), %r14                             #200.4
        addq      %r14, %rdx                                    #200.4
        lea       10(%r8,%r15), %r15                            #200.4
        addq      %rax, %r9                                     #200.4
        addq      %r15, %rdx                                    #203.4
        rolq      $16, %r15                                     #203.4
        addq      %rbp, %r9                                     #203.4
        rolq      $14, %rax                                     #203.4
        xorq      %rdx, %r15                                    #203.4
        xorq      %r9, %rax                                     #203.4
        addq      %r15, %r9                                     #203.4
        rolq      $52, %r15                                     #203.4
        addq      %rax, %rdx                                    #203.4
        rolq      $57, %rax                                     #203.4
        xorq      %r9, %r15                                     #203.4
        xorq      %rdx, %rax                                    #203.4
        addq      %r15, %rdx                                    #203.4
        rolq      $40, %r15                                     #203.4
        addq      %rax, %r9                                     #203.4
        rolq      $23, %rax                                     #203.4
        xorq      %rdx, %r15                                    #203.4
        xorq      %r9, %rax                                     #203.4
        addq      %r15, %r9                                     #203.4
        rolq      $5, %r15                                      #203.4
        addq      %rax, %rdx                                    #203.4
        xorq      %r9, %r15                                     #203.4
        addq      %rbx, %r9                                     #203.4
        rolq      $37, %rax                                     #203.4
        addq      %rbp, %r12                                    #206.4
        xorq      %rdx, %rax                                    #203.4
        addq      %rax, %r14                                    #203.4
        addq      %r14, %r9                                     #203.4
        lea       11(%r11,%r15), %rax                           #203.4
        rolq      $25, %r14                                     #203.4
        lea       (%rsi,%r8), %r15                              #203.4
        addq      %r15, %rdx                                    #203.4
        xorq      %r9, %r14                                     #203.4
        addq      %rax, %rdx                                    #203.4
        rolq      $33, %rax                                     #203.4
        xorq      %rdx, %rax                                    #203.4
        addq      %r14, %rdx                                    #203.4
        addq      %rax, %r9                                     #203.4
        rolq      $46, %rax                                     #203.4
        rolq      $12, %r14                                     #203.4
        xorq      %r9, %rax                                     #203.4
        xorq      %rdx, %r14                                    #203.4
        addq      %rax, %rdx                                    #203.4
        rolq      $22, %rax                                     #203.4
        addq      %r14, %r9                                     #203.4
        rolq      $58, %r14                                     #203.4
        xorq      %rdx, %rax                                    #203.4
        xorq      %r9, %r14                                     #203.4
        addq      %rax, %r9                                     #203.4
        rolq      $32, %rax                                     #203.4
        addq      %r14, %rdx                                    #203.4
        xorq      %r9, %rax                                     #203.4
        addq      %r10, %r9                                     #203.4
        rolq      $32, %r14                                     #203.4
        xorq      %rdx, %r14                                    #203.4
        addq      %r14, %r15                                    #203.4
        lea       (%rdi,%r11), %r14                             #203.4
        addq      %r14, %rdx                                    #203.4
        lea       12(%rbp,%rax), %rax                           #203.4
        addq      %rax, %rdx                                    #206.4
        addq      %r15, %r9                                     #206.4
        rolq      $16, %rax                                     #206.4
        rolq      $14, %r15                                     #206.4
        xorq      %rdx, %rax                                    #206.4
        xorq      %r9, %r15                                     #206.4
        addq      %rax, %r9                                     #206.4
        rolq      $52, %rax                                     #206.4
        addq      %r15, %rdx                                    #206.4
        rolq      $57, %r15                                     #206.4
        xorq      %r9, %rax                                     #206.4
        xorq      %rdx, %r15                                    #206.4
        addq      %rax, %rdx                                    #206.4
        rolq      $40, %rax                                     #206.4
        addq      %r15, %r9                                     #206.4
        rolq      $23, %r15                                     #206.4
        xorq      %rdx, %rax                                    #206.4
        xorq      %r9, %r15                                     #206.4
        addq      %rax, %r9                                     #206.4
        rolq      $5, %rax                                      #206.4
        addq      %r15, %rdx                                    #206.4
        xorq      %r9, %rax                                     #206.4
        addq      %r8, %r9                                      #206.4
        rolq      $37, %r15                                     #206.4
        xorq      %rdx, %r15                                    #206.4
        addq      %r15, %r14                                    #206.4
        addq      %r14, %r9                                     #206.4
        lea       13(%rbx,%rax), %r15                           #206.4
        rolq      $25, %r14                                     #206.4
        movq      %r14, 168(%rsp)                               #206.4[spill]
        addq      $32, 96(%rsp)                                 #135.3[spill]
        movq      176(%rsp), %r14                               #206.4[spill]
        movq      184(%rsp), %rax                               #206.4[spill]
                                # LOE rax rdx rcx rbx rbp rsi rdi r8 r9 r10 r11 r12 r13 r14 r15
..B1.8:                         # Preds ..B1.3
                                # Execution count [5.56e+00]
        addq      %r12, %rdx                                    #206.4
        addq      %r15, %rdx                                    #206.4
        rolq      $33, %r15                                     #206.4
        xorq      %rdx, %r15                                    #206.4
        movq      %rsi, 192(%rsp)                               #[spill]
        movq      168(%rsp), %rsi                               #206.4[spill]
        xorq      %r9, %rsi                                     #206.4
        addq      %r15, %r9                                     #206.4
        rolq      $46, %r15                                     #206.4
        addq      %rsi, %rdx                                    #206.4
        rolq      $12, %rsi                                     #206.4
        xorq      %r9, %r15                                     #206.4
        xorq      %rdx, %rsi                                    #206.4
        addq      %r15, %rdx                                    #206.4
        rolq      $22, %r15                                     #206.4
        addq      %rsi, %r9                                     #206.4
        rolq      $58, %rsi                                     #206.4
        xorq      %rdx, %r15                                    #206.4
        xorq      %r9, %rsi                                     #206.4
        addq      %r15, %r9                                     #206.4
        rolq      $32, %r15                                     #206.4
        addq      %rsi, %rdx                                    #206.4
        xorq      %r9, %r15                                     #206.4
        addq      %r11, %r9                                     #206.4
        rolq      $32, %rsi                                     #206.4
        xorq      %rdx, %rsi                                    #206.4
        addq      %rcx, %rdx                                    #206.4
        addq      %rsi, %r12                                    #206.4
        addq      %r12, %r9                                     #209.4
        lea       14(%r10,%r15), %rsi                           #206.4
        addq      %rsi, %rdx                                    #209.4
        rolq      $16, %rsi                                     #209.4
        rolq      $14, %r12                                     #209.4
        xorq      %rdx, %rsi                                    #209.4
        xorq      %r9, %r12                                     #209.4
        addq      %rsi, %r9                                     #209.4
        rolq      $52, %rsi                                     #209.4
        addq      %r12, %rdx                                    #209.4
        rolq      $57, %r12                                     #209.4
        xorq      %r9, %rsi                                     #209.4
        xorq      %rdx, %r12                                    #209.4
        addq      %rsi, %rdx                                    #209.4
        rolq      $40, %rsi                                     #209.4
        addq      %r12, %r9                                     #209.4
        rolq      $23, %r12                                     #209.4
        xorq      %rdx, %rsi                                    #209.4
        xorq      %r9, %r12                                     #209.4
        addq      %rsi, %r9                                     #209.4
        rolq      $5, %rsi                                      #209.4
        addq      %r12, %rdx                                    #209.4
        xorq      %r9, %rsi                                     #209.4
        rolq      $37, %r12                                     #209.4
        xorq      %rdx, %r12                                    #209.4
        addq      %r13, %rdx                                    #209.4
        addq      %r12, %rcx                                    #209.4
        addq      %rcx, %r9                                     #209.4
        lea       15(%r8,%rsi), %r12                            #209.4
        addq      %r12, %rdx                                    #209.4
        addq      %rbp, %r9                                     #209.4
        rolq      $33, %r12                                     #209.4
        rolq      $25, %rcx                                     #209.4
        xorq      %rdx, %r12                                    #209.4
        xorq      %r9, %rcx                                     #209.4
        addq      %r12, %r9                                     #209.4
        rolq      $46, %r12                                     #209.4
        addq      %rcx, %rdx                                    #209.4
        rolq      $12, %rcx                                     #209.4
        xorq      %r9, %r12                                     #209.4
        xorq      %rdx, %rcx                                    #209.4
        addq      %r12, %rdx                                    #209.4
        rolq      $22, %r12                                     #209.4
        addq      %rcx, %r9                                     #209.4
        rolq      $58, %rcx                                     #209.4
        xorq      %rdx, %r12                                    #209.4
        xorq      %r9, %rcx                                     #209.4
        addq      %r12, %r9                                     #209.4
        rolq      $32, %r12                                     #209.4
        addq      %rcx, %rdx                                    #209.4
        xorq      %r9, %r12                                     #209.4
        addq      %rbx, %r9                                     #209.4
        rolq      $32, %rcx                                     #209.4
        xorq      %rdx, %rcx                                    #209.4
        addq      %r14, %rdx                                    #209.4
        addq      %rcx, %r13                                    #209.4
        addq      %r13, %r9                                     #212.4
        lea       16(%r11,%r12), %rcx                           #209.4
        addq      %rcx, %rdx                                    #212.4
        rolq      $16, %rcx                                     #212.4
        rolq      $14, %r13                                     #212.4
        xorq      %rdx, %rcx                                    #212.4
        xorq      %r9, %r13                                     #212.4
        addq      %rcx, %r9                                     #212.4
        rolq      $52, %rcx                                     #212.4
        addq      %r13, %rdx                                    #212.4
        rolq      $57, %r13                                     #212.4
        xorq      %r9, %rcx                                     #212.4
        xorq      %rdx, %r13                                    #212.4
        addq      %rcx, %rdx                                    #212.4
        rolq      $40, %rcx                                     #212.4
        addq      %r13, %r9                                     #212.4
        rolq      $23, %r13                                     #212.4
        xorq      %rdx, %rcx                                    #212.4
        xorq      %r9, %r13                                     #212.4
        addq      %rcx, %r9                                     #212.4
        rolq      $5, %rcx                                      #212.4
        addq      %r13, %rdx                                    #212.4
        xorq      %r9, %rcx                                     #212.4
        addq      %r10, %r9                                     #212.4
        rolq      $37, %r13                                     #212.4
        xorq      %rdx, %r13                                    #212.4
        addq      %rax, %rdx                                    #212.4
        addq      %r13, %r14                                    #212.4
        addq      %r14, %r9                                     #212.4
        lea       17(%rbp,%rcx), %rbp                           #212.4
        addq      %rbp, %rdx                                    #212.4
        rolq      $33, %rbp                                     #212.4
        rolq      $25, %r14                                     #212.4
        xorq      %rdx, %rbp                                    #212.4
        xorq      %r9, %r14                                     #212.4
        addq      %rbp, %r9                                     #212.4
        rolq      $46, %rbp                                     #212.4
        addq      %r14, %rdx                                    #212.4
        rolq      $12, %r14                                     #212.4
        xorq      %r9, %rbp                                     #212.4
        xorq      %rdx, %r14                                    #212.4
        addq      %rbp, %rdx                                    #212.4
        rolq      $22, %rbp                                     #212.4
        addq      %r14, %r9                                     #212.4
        rolq      $58, %r14                                     #212.4
        xorq      %rdx, %rbp                                    #212.4
        xorq      %r9, %r14                                     #212.4
        addq      %rbp, %r9                                     #212.4
        rolq      $32, %rbp                                     #212.4
        addq      %r14, %rdx                                    #212.4
        xorq      %r9, %rbp                                     #212.4
        addq      %r9, %r8                                      #212.4
        rolq      $32, %r14                                     #212.4
        xorq      %rdx, %r14                                    #212.4
        movq      152(%rsp), %r11                               #239.3[spill]
        addq      %r14, %rax                                    #212.4
        addq      144(%rsp), %rdx                               #212.4[spill]
        lea       18(%rbx,%rbp), %r10                           #212.4
        movq      $0xbfffffffffffffff, %rbx                     #246.3
        xorq      136(%rsp), %r8                                #239.20[spill]
        andq      %rbx, %rdi                                    #246.3
        xorq      120(%rsp), %rax                               #240.20[spill]
        xorq      128(%rsp), %rdx                               #241.20[spill]
        xorq      112(%rsp), %r10                               #242.20[spill]
        movq      192(%rsp), %rsi                               #247.13[spill]
        movq      %r8, 32(%r11)                                 #239.3
        movq      %rax, 40(%r11)                                #240.3
        movq      %rdx, 48(%r11)                                #241.3
        movq      %r10, 56(%r11)                                #242.3
        decq      160(%rsp)                                     #247.13[spill]
        jne       ..B1.4        # Prob 82%                      #247.13
                                # LOE rax rdx rsi rdi r8 r10 r11
..B1.5:                         # Preds ..B1.8
                                # Execution count [1.00e+00]: Infreq
        movq      %rsi, 16(%r11)                                #248.2
        movq      %rdi, 24(%r11)                                #249.2
        addq      $200, %rsp                                    #250.1
	.cfi_def_cfa_offset 56
	.cfi_restore 6
        popq      %rbp                                          #250.1
	.cfi_def_cfa_offset 48
	.cfi_restore 3
        popq      %rbx                                          #250.1
	.cfi_def_cfa_offset 40
	.cfi_restore 15
        popq      %r15                                          #250.1
	.cfi_def_cfa_offset 32
	.cfi_restore 14
        popq      %r14                                          #250.1
	.cfi_def_cfa_offset 24
	.cfi_restore 13
        popq      %r13                                          #250.1
	.cfi_def_cfa_offset 16
	.cfi_restore 12
        popq      %r12                                          #250.1
	.cfi_def_cfa_offset 8
        ret                                                     #250.1
        .align    16,0x90
                                # LOE
	.cfi_endproc
# mark_end;
	.type	Skein_256_Process_Block,@function
	.size	Skein_256_Process_Block,.-Skein_256_Process_Block
..LNSkein_256_Process_Block.0:
	.data
# -- End  Skein_256_Process_Block
	.text
.L_2__routine_start_Skein_512_Process_Block_1:
# -- Begin  Skein_512_Process_Block
	.text
# mark_begin;
       .align    16,0x90
	.globl Skein_512_Process_Block
# --- Skein_512_Process_Block(Skein_512_Ctxt_t *, const uint8_t *, size_t, size_t)
Skein_512_Process_Block:
# parameter 1: %rdi
# parameter 2: %rsi
# parameter 3: %rdx
# parameter 4: %rcx
..B2.1:                         # Preds ..B2.0
                                # Execution count [1.00e+00]
	.cfi_startproc
..___tag_value_Skein_512_Process_Block.57:
..L58:
                                                         #273.1
        pushq     %r12                                          #273.1
	.cfi_def_cfa_offset 16
	.cfi_offset 12, -16
        pushq     %r13                                          #273.1
	.cfi_def_cfa_offset 24
	.cfi_offset 13, -24
        pushq     %r14                                          #273.1
	.cfi_def_cfa_offset 32
	.cfi_offset 14, -32
        pushq     %r15                                          #273.1
	.cfi_def_cfa_offset 40
	.cfi_offset 15, -40
        pushq     %rbx                                          #273.1
	.cfi_def_cfa_offset 48
	.cfi_offset 3, -48
        pushq     %rbp                                          #273.1
	.cfi_def_cfa_offset 56
	.cfi_offset 6, -56
        subq      $424, %rsp                                    #273.1
	.cfi_def_cfa_offset 480
        movq      %rdi, %r12                                    #273.1
        movq      %rcx, 184(%rsp)                               #273.1[spill]
        movq      %rdx, 176(%rsp)                               #273.1[spill]
        movq      %rsi, 168(%rsp)                               #273.1[spill]
        movq      72(%r12), %rax                                #328.11
        movq      16(%r12), %r11                                #313.10
        movq      24(%r12), %r10                                #314.10
        movq      %rax, 160(%rsp)                               #328.11[spill]
        movq      %r10, 8(%rsp)                                 #314.2
        movq      88(%r12), %r9                                 #330.11
        movq      32(%r12), %rcx                                #323.11
        movq      40(%r12), %rdx                                #324.11
        movq      48(%r12), %r8                                 #325.11
        movq      56(%r12), %rsi                                #326.11
        movq      64(%r12), %rdi                                #327.11
        movq      80(%r12), %rax                                #329.11
        movq      %r10, 336(%rsp)                               #329.11[spill]
        movq      %r11, 272(%rsp)                               #329.11[spill]
        movq      %r12, 280(%rsp)                               #329.11[spill]
        jmp       ..B2.2        # Prob 100%                     #329.11
                                # LOE rax rdx rcx rsi rdi r8 r9
..B2.4:                         # Preds ..B2.8
                                # Execution count [4.56e+00]
        movq      336(%rsp), %rbx                               #476.3[spill]
        movq      %rbx, 8(%rsp)                                 #476.3
                                # LOE rax rdx rcx rsi rdi r8 r9
..B2.2:                         # Preds ..B2.4 ..B2.1
                                # Execution count [5.56e+00]
        movq      %rdx, 32(%rsp)                                #324.3
        xorq      %rcx, %rdx                                    #331.19
        xorq      %r8, %rdx                                     #331.27
        xorq      %rsi, %rdx                                    #331.35
        xorq      %rdi, %rdx                                    #332.7
        movq      %rcx, 24(%rsp)                                #323.3
        movq      160(%rsp), %rcx                               #328.3[spill]
        xorq      %rcx, %rdx                                    #332.15
        xorq      %rax, %rdx                                    #332.23
        movq      272(%rsp), %rbx                               #320.3[spill]
        xorq      %r9, %rdx                                     #332.31
        movq      %rax, 72(%rsp)                                #329.3
        movq      $0x1bd11bdaa9fc1a22, %rax                     #332.39
        addq      184(%rsp), %rbx                               #320.3[spill]
        xorq      %rax, %rdx                                    #332.39
        movq      %rdx, 88(%rsp)                                #331.3
        movq      168(%rsp), %rdx                               #337.3[spill]
        movq      %rbx, (%rsp)                                  #320.3
        xorq      336(%rsp), %rbx                               #334.19[spill]
        movq      %rbx, 16(%rsp)                                #334.3
        movq      %r8, 40(%rsp)                                 #325.3
        movq      %rsi, 48(%rsp)                                #326.3
        movq      %rdi, 56(%rsp)                                #327.3
        movq      %rcx, 64(%rsp)                                #328.3
        movq      %r9, 80(%rsp)                                 #330.3
        movups    (%rdx), %xmm0                                 #337.3
        movups    %xmm0, 96(%rsp)                               #337.3
        movups    16(%rdx), %xmm1                               #337.3
        movups    %xmm1, 112(%rsp)                              #337.3
        movups    32(%rdx), %xmm2                               #337.3
        movups    %xmm2, 128(%rsp)                              #337.3
        movups    48(%rdx), %xmm3                               #337.3
        movups    %xmm3, 144(%rsp)                              #337.3
                                # LOE
..B2.3:                         # Preds ..B2.2
                                # Execution count [5.56e+00]
        movq      (%rsp), %r10                                  #346.23
        movq      64(%rsp), %r8                                 #346.15
        movq      136(%rsp), %r13                               #346.8
        movq      %r13, 216(%rsp)                               #346.8[spill]
        movq      %r10, 272(%rsp)                               #346.23[spill]
        lea       (%r10,%r8), %rax                              #346.15
        movq      8(%rsp), %rbx                                 #347.23
        lea       (%r13,%rax), %r10                             #346.23
        movq      72(%rsp), %r13                                #347.15
        movq      104(%rsp), %r14                               #342.8
        movq      32(%rsp), %r11                                #342.15
        movq      %r13, 352(%rsp)                               #347.15[spill]
        lea       (%rbx,%r13), %rsi                             #347.15
        movq      24(%rsp), %r13                                #341.15
        movq      %r14, 224(%rsp)                               #342.8[spill]
        addq      %r11, %r14                                    #342.15
        movq      152(%rsp), %rcx                               #348.8
        movq      80(%rsp), %r15                                #348.15
        addq      %r14, %r13                                    #341.15
        movq      96(%rsp), %rdx                                #341.8
        addq      %rdx, %r13                                    #410.4
        movq      %rdx, 248(%rsp)                               #341.8[spill]
        movq      128(%rsp), %rdi                               #345.8
        movq      56(%rsp), %rdx                                #345.15
        movq      %rax, 160(%rsp)                               #346.15[spill]
        movq      %rcx, 200(%rsp)                               #348.8[spill]
        movq      112(%rsp), %rbp                               #343.8
        movq      120(%rsp), %r9                                #344.8
        movq      48(%rsp), %r12                                #344.15
        movq      144(%rsp), %rax                               #347.8
        movq      %rbx, 336(%rsp)                               #347.23[spill]
        lea       (%rcx,%r15), %rbx                             #348.15
        movq      40(%rsp), %rcx                                #343.15
        movq      %rdi, 256(%rsp)                               #345.8[spill]
        addq      %rdx, %rdi                                    #345.15
        movq      %rbp, 232(%rsp)                               #343.8[spill]
        addq      %r10, %rdi                                    #410.4
        movq      %r9, 208(%rsp)                                #344.8[spill]
        addq      %r12, %r9                                     #344.15
        movq      %rax, 240(%rsp)                               #347.8[spill]
        addq      %rcx, %rbp                                    #343.15
        rolq      $19, %r10                                     #410.4
        addq      %rsi, %rax                                    #347.23
        addq      %r9, %rbp                                     #410.4
        xorq      %rdi, %r10                                    #410.4
        rolq      $36, %r9                                      #410.4
        addq      %rbx, %rax                                    #410.4
        rolq      $37, %rbx                                     #410.4
        xorq      %rbp, %r9                                     #410.4
        rolq      $46, %r14                                     #410.4
        xorq      %rax, %rbx                                    #410.4
        addq      %r10, %rax                                    #410.4
        xorq      %r13, %r14                                    #410.4
        rolq      $14, %r10                                     #410.4
        addq      %r9, %r13                                     #410.4
        rolq      $42, %r9                                      #410.4
        addq      %rbx, %rdi                                    #410.4
        rolq      $27, %rbx                                     #410.4
        xorq      %rax, %r10                                    #410.4
        addq      %r14, %rbp                                    #410.4
        xorq      %r13, %r9                                     #410.4
        rolq      $33, %r14                                     #410.4
        xorq      %rdi, %rbx                                    #410.4
        addq      %r10, %r13                                    #410.4
        xorq      %rbp, %r14                                    #410.4
        rolq      $36, %r10                                     #410.4
        addq      %rbx, %rbp                                    #410.4
        rolq      $39, %rbx                                     #410.4
        xorq      %r13, %r10                                    #410.4
        xorq      %rbp, %rbx                                    #410.4
        addq      %r10, %rbp                                    #410.4
        rolq      $54, %r10                                     #410.4
        addq      %rbx, %r13                                    #410.4
        xorq      %rbp, %r10                                    #410.4
        addq      %r9, %rax                                     #410.4
        movq      %rsi, 264(%rsp)                               #347.15[spill]
        addq      %rsi, %r10                                    #410.4
        movq      16(%rsp), %rsi                                #410.4
        addq      %r14, %rdi                                    #410.4
        rolq      $9, %rbx                                      #410.4
        addq      %r12, %rbp                                    #410.4
        xorq      %r13, %rbx                                    #410.4
        addq      %r11, %r13                                    #410.4
        rolq      $49, %r9                                      #410.4
        addq      %r15, %rsi                                    #410.4
        rolq      $17, %r14                                     #410.4
        xorq      %rax, %r9                                     #410.4
        movq      88(%rsp), %r15                                #410.4
        xorq      %rdi, %r14                                    #410.4
        addq      %r9, %rdi                                     #410.4
        addq      %r14, %rax                                    #410.4
        rolq      $56, %r9                                      #410.4
        rolq      $44, %r14                                     #410.4
        xorq      %rdi, %r9                                     #410.4
        addq      %r8, %rdi                                     #410.4
        xorq      %rax, %r14                                    #410.4
        addq      %rsi, %rax                                    #410.4
        lea       1(%r15,%rbx), %rbx                            #410.4
        addq      %rdx, %r9                                     #410.4
        addq      %r10, %rdi                                    #410.4
        rolq      $34, %r10                                     #410.4
        addq      %rcx, %r14                                    #410.4
        addq      %rbx, %rax                                    #410.4
        addq      %r9, %rbp                                     #410.4
        rolq      $24, %rbx                                     #410.4
        xorq      %rdi, %r10                                    #410.4
        rolq      $30, %r9                                      #410.4
        addq      %r14, %r13                                    #410.4
        rolq      $39, %r14                                     #410.4
        xorq      %rax, %rbx                                    #410.4
        xorq      %rbp, %r9                                     #410.4
        addq      %r10, %rax                                    #410.4
        rolq      $10, %r10                                     #410.4
        xorq      %r13, %r14                                    #410.4
        addq      %rbx, %rdi                                    #410.4
        addq      %r9, %r13                                     #410.4
        rolq      $50, %rbx                                     #410.4
        xorq      %rax, %r10                                    #410.4
        rolq      $17, %r9                                      #410.4
        addq      %r14, %rbp                                    #410.4
        rolq      $13, %r14                                     #410.4
        xorq      %rdi, %rbx                                    #410.4
        xorq      %r13, %r9                                     #410.4
        addq      %r10, %r13                                    #410.4
        rolq      $39, %r10                                     #410.4
        xorq      %rbp, %r14                                    #410.4
        addq      %rbx, %rbp                                    #410.4
        xorq      %r13, %r10                                    #410.4
        rolq      $43, %rbx                                     #410.4
        addq      %r9, %rax                                     #410.4
        xorq      %rbp, %rbx                                    #410.4
        addq      %r10, %rbp                                    #410.4
        rolq      $56, %r10                                     #410.4
        addq      %rbx, %r13                                    #410.4
        rolq      $35, %rbx                                     #410.4
        xorq      %rbp, %r10                                    #410.4
        xorq      %r13, %rbx                                    #410.4
        addq      %rsi, %r10                                    #410.4
        movq      %rsi, 296(%rsp)                               #410.4[spill]
        addq      %rcx, %r13                                    #410.4
        rolq      $29, %r9                                      #410.4
        addq      %r14, %rdi                                    #410.4
        movq      24(%rsp), %rsi                                #410.4
        xorq      %rax, %r9                                     #410.4
        movq      (%rsp), %rcx                                  #410.4
        addq      %rdx, %rbp                                    #410.4
        rolq      $25, %r14                                     #410.4
        xorq      %rdi, %r14                                    #410.4
        addq      %r9, %rdi                                     #410.4
        rolq      $22, %r9                                      #410.4
        addq      %r14, %rax                                    #410.4
        rolq      $8, %r14                                      #410.4
        lea       2(%rsi,%rbx), %rbx                            #410.4
        movq      72(%rsp), %rsi                                #410.4
        addq      %r15, %rcx                                    #410.4
        xorq      %rdi, %r9                                     #410.4
        addq      %rsi, %rdi                                    #410.4
        xorq      %rax, %r14                                    #410.4
        addq      %rcx, %rax                                    #410.4
        addq      %r8, %r9                                      #410.4
        addq      %r10, %rdi                                    #417.4
        rolq      $19, %r10                                     #417.4
        addq      %r12, %r14                                    #410.4
        addq      %rbx, %rax                                    #417.4
        addq      %r9, %rbp                                     #417.4
        rolq      $37, %rbx                                     #417.4
        xorq      %rdi, %r10                                    #417.4
        rolq      $36, %r9                                      #417.4
        addq      %r14, %r13                                    #417.4
        rolq      $46, %r14                                     #417.4
        xorq      %rax, %rbx                                    #417.4
        xorq      %rbp, %r9                                     #417.4
        addq      %r10, %rax                                    #417.4
        rolq      $14, %r10                                     #417.4
        xorq      %r13, %r14                                    #417.4
        addq      %rbx, %rdi                                    #417.4
        addq      %r9, %r13                                     #417.4
        rolq      $27, %rbx                                     #417.4
        xorq      %rax, %r10                                    #417.4
        rolq      $42, %r9                                      #417.4
        addq      %r14, %rbp                                    #417.4
        rolq      $33, %r14                                     #417.4
        xorq      %rdi, %rbx                                    #417.4
        xorq      %r13, %r9                                     #417.4
        addq      %r10, %r13                                    #417.4
        rolq      $36, %r10                                     #417.4
        xorq      %rbp, %r14                                    #417.4
        addq      %rbx, %rbp                                    #417.4
        xorq      %r13, %r10                                    #417.4
        rolq      $39, %rbx                                     #417.4
        addq      %r9, %rax                                     #417.4
        xorq      %rbp, %rbx                                    #417.4
        addq      %r10, %rbp                                    #417.4
        rolq      $54, %r10                                     #417.4
        addq      %rbx, %r13                                    #417.4
        rolq      $9, %rbx                                      #417.4
        xorq      %rbp, %r10                                    #417.4
        movq      %rcx, 288(%rsp)                               #410.4[spill]
        xorq      %r13, %rbx                                    #417.4
        addq      %rcx, %r10                                    #417.4
        addq      %r12, %r13                                    #417.4
        movq      8(%rsp), %r12                                 #417.4
        addq      %r14, %rdi                                    #417.4
        movq      24(%rsp), %rcx                                #417.4
        addq      %r8, %rbp                                     #417.4
        rolq      $49, %r9                                      #417.4
        lea       3(%r11,%rbx), %r11                            #417.4
        rolq      $17, %r14                                     #417.4
        xorq      %rax, %r9                                     #417.4
        xorq      %rdi, %r14                                    #417.4
        addq      %r9, %rdi                                     #417.4
        rolq      $56, %r9                                      #417.4
        addq      %r14, %rax                                    #417.4
        rolq      $44, %r14                                     #417.4
        addq      %rcx, %r12                                    #417.4
        movq      80(%rsp), %rbx                                #417.4
        xorq      %rdi, %r9                                     #417.4
        addq      %rbx, %rdi                                    #417.4
        xorq      %rax, %r14                                    #417.4
        addq      %r12, %rax                                    #417.4
        addq      %rsi, %r9                                     #417.4
        addq      %r10, %rdi                                    #417.4
        addq      %rdx, %r14                                    #417.4
        rolq      $34, %r10                                     #417.4
        addq      %r11, %rax                                    #417.4
        rolq      $24, %r11                                     #417.4
        addq      %r9, %rbp                                     #417.4
        rolq      $30, %r9                                      #417.4
        xorq      %rdi, %r10                                    #417.4
        addq      %r14, %r13                                    #417.4
        xorq      %rax, %r11                                    #417.4
        rolq      $39, %r14                                     #417.4
        xorq      %rbp, %r9                                     #417.4
        addq      %r10, %rax                                    #417.4
        xorq      %r13, %r14                                    #417.4
        rolq      $10, %r10                                     #417.4
        addq      %r11, %rdi                                    #417.4
        rolq      $50, %r11                                     #417.4
        addq      %r9, %r13                                     #417.4
        rolq      $17, %r9                                      #417.4
        xorq      %rax, %r10                                    #417.4
        addq      %r14, %rbp                                    #417.4
        xorq      %rdi, %r11                                    #417.4
        rolq      $13, %r14                                     #417.4
        xorq      %r13, %r9                                     #417.4
        addq      %r10, %r13                                    #417.4
        xorq      %rbp, %r14                                    #417.4
        rolq      $39, %r10                                     #417.4
        addq      %r11, %rbp                                    #417.4
        rolq      $43, %r11                                     #417.4
        xorq      %r13, %r10                                    #417.4
        xorq      %rbp, %r11                                    #417.4
        addq      %r10, %rbp                                    #417.4
        rolq      $56, %r10                                     #417.4
        addq      %r11, %r13                                    #417.4
        rolq      $35, %r11                                     #417.4
        xorq      %rbp, %r10                                    #417.4
        xorq      %r13, %r11                                    #417.4
        addq      %r12, %r10                                    #417.4
        movq      %r12, 360(%rsp)                               #417.4[spill]
        addq      %rdx, %r13                                    #417.4
        movq      40(%rsp), %r12                                #417.4
        addq      %r9, %rax                                     #417.4
        movq      32(%rsp), %rdx                                #417.4
        addq      %r14, %rdi                                    #417.4
        rolq      $29, %r9                                      #417.4
        addq      %rsi, %rbp                                    #417.4
        rolq      $25, %r14                                     #417.4
        lea       4(%r12,%r11), %r11                            #417.4
        movq      16(%rsp), %r12                                #417.4
        xorq      %rax, %r9                                     #417.4
        xorq      %rdi, %r14                                    #417.4
        addq      %r9, %rdi                                     #417.4
        rolq      $22, %r9                                      #417.4
        addq      %r14, %rax                                    #417.4
        rolq      $8, %r14                                      #417.4
        addq      %rdx, %r12                                    #417.4
        xorq      %rdi, %r9                                     #417.4
        addq      %r15, %rdi                                    #417.4
        xorq      %rax, %r14                                    #417.4
        addq      %r12, %rax                                    #417.4
        addq      %rbx, %r9                                     #417.4
        addq      %r10, %rdi                                    #420.4
        rolq      $19, %r10                                     #420.4
        addq      %r8, %r14                                     #417.4
        addq      %r11, %rax                                    #420.4
        addq      %r9, %rbp                                     #420.4
        rolq      $37, %r11                                     #420.4
        xorq      %rdi, %r10                                    #420.4
        rolq      $36, %r9                                      #420.4
        addq      %r14, %r13                                    #420.4
        rolq      $46, %r14                                     #420.4
        xorq      %rax, %r11                                    #420.4
        xorq      %rbp, %r9                                     #420.4
        addq      %r10, %rax                                    #420.4
        rolq      $14, %r10                                     #420.4
        xorq      %r13, %r14                                    #420.4
        addq      %r11, %rdi                                    #420.4
        addq      %r9, %r13                                     #420.4
        rolq      $27, %r11                                     #420.4
        xorq      %rax, %r10                                    #420.4
        rolq      $42, %r9                                      #420.4
        addq      %r14, %rbp                                    #420.4
        rolq      $33, %r14                                     #420.4
        xorq      %rdi, %r11                                    #420.4
        xorq      %r13, %r9                                     #420.4
        addq      %r10, %r13                                    #420.4
        rolq      $36, %r10                                     #420.4
        xorq      %rbp, %r14                                    #420.4
        addq      %r11, %rbp                                    #420.4
        xorq      %r13, %r10                                    #420.4
        rolq      $39, %r11                                     #420.4
        addq      %r14, %rdi                                    #420.4
        xorq      %rbp, %r11                                    #420.4
        addq      %r10, %rbp                                    #420.4
        rolq      $54, %r10                                     #420.4
        addq      %r11, %r13                                    #420.4
        rolq      $9, %r11                                      #420.4
        xorq      %rbp, %r10                                    #420.4
        xorq      %r13, %r11                                    #420.4
        addq      %r12, %r10                                    #420.4
        movq      %r12, 312(%rsp)                               #417.4[spill]
        addq      %r8, %r13                                     #420.4
        movq      48(%rsp), %r12                                #420.4
        addq      %r9, %rax                                     #420.4
        movq      %r8, 328(%rsp)                                #346.15[spill]
        addq      %rbx, %rbp                                    #420.4
        movq      40(%rsp), %r8                                 #420.4
        rolq      $17, %r14                                     #420.4
        lea       5(%r12,%r11), %r12                            #420.4
        movq      (%rsp), %r11                                  #420.4
        xorq      %rdi, %r14                                    #420.4
        rolq      $49, %r9                                      #420.4
        xorq      %rax, %r9                                     #420.4
        addq      %r14, %rax                                    #420.4
        rolq      $44, %r14                                     #420.4
        addq      %r9, %rdi                                     #420.4
        rolq      $56, %r9                                      #420.4
        addq      %r8, %r11                                     #420.4
        xorq      %rax, %r14                                    #420.4
        xorq      %rdi, %r9                                     #420.4
        addq      %r10, %rdi                                    #420.4
        addq      %r11, %rax                                    #420.4
        rolq      $34, %r10                                     #420.4
        addq      %rsi, %r14                                    #420.4
        addq      %r15, %r9                                     #420.4
        addq      %rcx, %rdi                                    #420.4
        addq      %r12, %rax                                    #420.4
        addq      %r14, %r13                                    #420.4
        rolq      $24, %r12                                     #420.4
        addq      %r9, %rbp                                     #420.4
        rolq      $39, %r14                                     #420.4
        xorq      %rdi, %r10                                    #420.4
        rolq      $30, %r9                                      #420.4
        xorq      %rax, %r12                                    #420.4
        xorq      %r13, %r14                                    #420.4
        xorq      %rbp, %r9                                     #420.4
        addq      %r12, %rdi                                    #420.4
        addq      %r10, %rax                                    #420.4
        rolq      $50, %r12                                     #420.4
        addq      %r14, %rbp                                    #420.4
        rolq      $10, %r10                                     #420.4
        addq      %r9, %r13                                     #420.4
        rolq      $13, %r14                                     #420.4
        xorq      %rdi, %r12                                    #420.4
        rolq      $17, %r9                                      #420.4
        xorq      %rax, %r10                                    #420.4
        xorq      %rbp, %r14                                    #420.4
        xorq      %r13, %r9                                     #420.4
        addq      %r10, %r13                                    #420.4
        addq      %r12, %rbp                                    #420.4
        rolq      $39, %r10                                     #420.4
        addq      %r14, %rdi                                    #420.4
        rolq      $43, %r12                                     #420.4
        xorq      %r13, %r10                                    #420.4
        xorq      %rbp, %r12                                    #420.4
        addq      %r10, %rbp                                    #420.4
        rolq      $56, %r10                                     #420.4
        addq      %r12, %r13                                    #420.4
        rolq      $35, %r12                                     #420.4
        addq      %r9, %rax                                     #420.4
        movq      %r15, 344(%rsp)                               #410.4[spill]
        xorq      %rbp, %r10                                    #420.4
        rolq      $25, %r14                                     #420.4
        xorq      %r13, %r12                                    #420.4
        rolq      $29, %r9                                      #420.4
        addq      %rsi, %r13                                    #420.4
        movq      48(%rsp), %rsi                                #420.4
        addq      %r15, %rbp                                    #420.4
        movq      8(%rsp), %r15                                 #420.4
        xorq      %rdi, %r14                                    #420.4
        movq      %r11, 304(%rsp)                               #420.4[spill]
        xorq      %rax, %r9                                     #420.4
        addq      %r11, %r10                                    #420.4
        addq      %r14, %rax                                    #420.4
        movq      56(%rsp), %r11                                #420.4
        addq      %r9, %rdi                                     #420.4
        rolq      $8, %r14                                      #420.4
        addq      %rsi, %r15                                    #420.4
        rolq      $22, %r9                                      #420.4
        xorq      %rax, %r14                                    #420.4
        xorq      %rdi, %r9                                     #420.4
        lea       6(%r11,%r12), %r12                            #420.4
        addq      %r15, %rax                                    #420.4
        addq      %rbx, %r14                                    #420.4
        addq      %rcx, %r9                                     #420.4
        addq      %rdx, %rdi                                    #420.4
        addq      %r12, %rax                                    #423.4
        addq      %r14, %r13                                    #423.4
        rolq      $37, %r12                                     #423.4
        addq      %r9, %rbp                                     #423.4
        rolq      $46, %r14                                     #423.4
        addq      %r10, %rdi                                    #423.4
        rolq      $36, %r9                                      #423.4
        xorq      %rax, %r12                                    #423.4
        rolq      $19, %r10                                     #423.4
        xorq      %r13, %r14                                    #423.4
        xorq      %rbp, %r9                                     #423.4
        xorq      %rdi, %r10                                    #423.4
        addq      %r12, %rdi                                    #423.4
        addq      %r14, %rbp                                    #423.4
        rolq      $27, %r12                                     #423.4
        addq      %r9, %r13                                     #423.4
        rolq      $33, %r14                                     #423.4
        addq      %r10, %rax                                    #423.4
        rolq      $42, %r9                                      #423.4
        xorq      %rdi, %r12                                    #423.4
        rolq      $14, %r10                                     #423.4
        xorq      %rbp, %r14                                    #423.4
        movq      %r15, 320(%rsp)                               #420.4[spill]
        xorq      %r13, %r9                                     #423.4
        movq      %r12, 192(%rsp)                               #423.4[spill]
        xorq      %rax, %r10                                    #423.4
        addq      $64, 168(%rsp)                                #350.3[spill]
        movq      360(%rsp), %r12                               #423.4[spill]
        movq      16(%rsp), %r15                                #423.4
                                # LOE rax rdx rcx rbx rbp rsi rdi r8 r9 r10 r11 r12 r13 r14 r15
..B2.9:                         # Preds ..B2.3
                                # Execution count [5.56e+00]
        movq      %rsi, 392(%rsp)                               #[spill]
        addq      %r10, %r13                                    #423.4
        movq      192(%rsp), %rsi                               #423.4[spill]
        addq      %rsi, %rbp                                    #423.4
        rolq      $39, %rsi                                     #423.4
        addq      %r9, %rax                                     #423.4
        rolq      $36, %r10                                     #423.4
        xorq      %rbp, %rsi                                    #423.4
        xorq      %r13, %r10                                    #423.4
        addq      %rsi, %r13                                    #423.4
        rolq      $9, %rsi                                      #423.4
        addq      %r14, %rdi                                    #423.4
        rolq      $49, %r9                                      #423.4
        xorq      %r13, %rsi                                    #423.4
        rolq      $17, %r14                                     #423.4
        xorq      %rax, %r9                                     #423.4
        movq      %r11, 384(%rsp)                               #[spill]
        addq      %r11, %r15                                    #423.4
        movq      328(%rsp), %r11                               #423.4[spill]
        xorq      %rdi, %r14                                    #423.4
        addq      %r10, %rbp                                    #423.4
        addq      %r9, %rdi                                     #423.4
        rolq      $56, %r9                                      #423.4
        addq      %r14, %rax                                    #423.4
        rolq      $54, %r10                                     #423.4
        xorq      %rdi, %r9                                     #423.4
        xorq      %rbp, %r10                                    #423.4
        addq      %rdx, %r9                                     #423.4
        rolq      $44, %r14                                     #423.4
        addq      %r8, %rdi                                     #423.4
        addq      320(%rsp), %r10                               #423.4[spill]
        xorq      %rax, %r14                                    #423.4
        movq      %r12, 360(%rsp)                               #[spill]
        lea       7(%r11,%rsi), %rsi                            #423.4
        movq      344(%rsp), %r12                               #423.4[spill]
        addq      %r15, %rax                                    #423.4
        addq      %r9, %rbp                                     #423.4
        addq      %r10, %rdi                                    #423.4
        rolq      $34, %r10                                     #423.4
        addq      %r12, %r14                                    #423.4
        addq      %rbx, %r13                                    #423.4
        addq      %rsi, %rax                                    #423.4
        rolq      $24, %rsi                                     #423.4
        addq      %rcx, %rbp                                    #423.4
        rolq      $30, %r9                                      #423.4
        xorq      %rdi, %r10                                    #423.4
        addq      %r14, %r13                                    #423.4
        xorq      %rax, %rsi                                    #423.4
        rolq      $39, %r14                                     #423.4
        xorq      %rbp, %r9                                     #423.4
        addq      %r10, %rax                                    #423.4
        xorq      %r13, %r14                                    #423.4
        rolq      $10, %r10                                     #423.4
        addq      %rsi, %rdi                                    #423.4
        rolq      $50, %rsi                                     #423.4
        xorq      %rax, %r10                                    #423.4
        addq      %r9, %r13                                     #423.4
        addq      %r14, %rbp                                    #423.4
        rolq      $17, %r9                                      #423.4
        xorq      %rdi, %rsi                                    #423.4
        rolq      $13, %r14                                     #423.4
        xorq      %r13, %r9                                     #423.4
        addq      %r10, %r13                                    #423.4
        xorq      %rbp, %r14                                    #423.4
        rolq      $39, %r10                                     #423.4
        addq      %rsi, %rbp                                    #423.4
        rolq      $43, %rsi                                     #423.4
        xorq      %r13, %r10                                    #423.4
        xorq      %rbp, %rsi                                    #423.4
        addq      %r10, %rbp                                    #423.4
        rolq      $56, %r10                                     #423.4
        addq      %rsi, %r13                                    #423.4
        rolq      $35, %rsi                                     #423.4
        xorq      %rbp, %r10                                    #423.4
        xorq      %r13, %rsi                                    #423.4
        addq      %r14, %rdi                                    #423.4
        rolq      $25, %r14                                     #423.4
        addq      %r15, %r10                                    #423.4
        movq      %r15, 400(%rsp)                               #423.4[spill]
        xorq      %rdi, %r14                                    #423.4
        movq      352(%rsp), %r15                               #423.4[spill]
        addq      %r9, %rax                                     #423.4
        rolq      $29, %r9                                      #423.4
        addq      %r12, %r13                                    #423.4
        xorq      %rax, %r9                                     #423.4
        addq      %r14, %rax                                    #423.4
        rolq      $8, %r14                                      #423.4
        addq      %r9, %rdi                                     #423.4
        movq      160(%rsp), %r11                               #423.4[spill]
        xorq      %rax, %r14                                    #423.4
        rolq      $22, %r9                                      #423.4
        lea       8(%r15,%rsi), %rsi                            #423.4
        addq      %r11, %rax                                    #423.4
        addq      %rcx, %r14                                    #423.4
        movq      392(%rsp), %r15                               #423.4[spill]
        xorq      %rdi, %r9                                     #423.4
        addq      %r15, %rdi                                    #423.4
        addq      %rsi, %rax                                    #426.4
        rolq      $37, %rsi                                     #426.4
        addq      %r8, %r9                                      #423.4
        addq      %r14, %r13                                    #426.4
        addq      %rdx, %rbp                                    #423.4
        rolq      $46, %r14                                     #426.4
        addq      %r10, %rdi                                    #426.4
        rolq      $19, %r10                                     #426.4
        xorq      %rax, %rsi                                    #426.4
        xorq      %r13, %r14                                    #426.4
        addq      %r9, %rbp                                     #426.4
        rolq      $36, %r9                                      #426.4
        xorq      %rdi, %r10                                    #426.4
        addq      %rsi, %rdi                                    #426.4
        xorq      %rbp, %r9                                     #426.4
        rolq      $27, %rsi                                     #426.4
        addq      %r14, %rbp                                    #426.4
        rolq      $33, %r14                                     #426.4
        xorq      %rdi, %rsi                                    #426.4
        addq      %r10, %rax                                    #426.4
        xorq      %rbp, %r14                                    #426.4
        rolq      $14, %r10                                     #426.4
        addq      %r9, %r13                                     #426.4
        rolq      $42, %r9                                      #426.4
        xorq      %rax, %r10                                    #426.4
        addq      %rsi, %rbp                                    #426.4
        xorq      %r13, %r9                                     #426.4
        rolq      $39, %rsi                                     #426.4
        addq      %r10, %r13                                    #426.4
        rolq      $36, %r10                                     #426.4
        xorq      %rbp, %rsi                                    #426.4
        xorq      %r13, %r10                                    #426.4
        addq      %rsi, %r13                                    #426.4
        rolq      $9, %rsi                                      #426.4
        addq      %r14, %rdi                                    #426.4
        rolq      $17, %r14                                     #426.4
        xorq      %r13, %rsi                                    #426.4
        xorq      %rdi, %r14                                    #426.4
        addq      %r9, %rax                                     #426.4
        rolq      $49, %r9                                      #426.4
        addq      %r10, %rbp                                    #426.4
        xorq      %rax, %r9                                     #426.4
        addq      %r14, %rax                                    #426.4
        rolq      $44, %r14                                     #426.4
        lea       9(%rbx,%rsi), %rsi                            #426.4
        rolq      $54, %r10                                     #426.4
        xorq      %rax, %r14                                    #426.4
        movq      %rbx, 376(%rsp)                               #[spill]
        xorq      %rbp, %r10                                    #426.4
        movq      264(%rsp), %rbx                               #426.4[spill]
        addq      %r9, %rdi                                     #426.4
        rolq      $56, %r9                                      #426.4
        addq      %rdx, %r14                                    #426.4
        addq      %rbx, %rax                                    #426.4
        addq      %r11, %r10                                    #426.4
        movq      384(%rsp), %r11                               #426.4[spill]
        xorq      %rdi, %r9                                     #426.4
        addq      %r14, %r13                                    #426.4
        addq      %r11, %rdi                                    #426.4
        addq      %rsi, %rax                                    #426.4
        addq      %r15, %r9                                     #426.4
        rolq      $24, %rsi                                     #426.4
        addq      %rcx, %r13                                    #426.4
        rolq      $39, %r14                                     #426.4
        addq      %r8, %rbp                                     #426.4
        addq      %r10, %rdi                                    #426.4
        xorq      %rax, %rsi                                    #426.4
        rolq      $34, %r10                                     #426.4
        xorq      %r13, %r14                                    #426.4
        addq      %r9, %rbp                                     #426.4
        xorq      %rdi, %r10                                    #426.4
        rolq      $30, %r9                                      #426.4
        addq      %rsi, %rdi                                    #426.4
        rolq      $50, %rsi                                     #426.4
        xorq      %rbp, %r9                                     #426.4
        addq      %r14, %rbp                                    #426.4
        xorq      %rdi, %rsi                                    #426.4
        rolq      $13, %r14                                     #426.4
        addq      %r10, %rax                                    #426.4
        rolq      $10, %r10                                     #426.4
        xorq      %rbp, %r14                                    #426.4
        xorq      %rax, %r10                                    #426.4
        addq      %r9, %r13                                     #426.4
        rolq      $17, %r9                                      #426.4
        addq      %rsi, %rbp                                    #426.4
        rolq      $43, %rsi                                     #426.4
        xorq      %r13, %r9                                     #426.4
        addq      %r10, %r13                                    #426.4
        xorq      %rbp, %rsi                                    #426.4
        rolq      $39, %r10                                     #426.4
        addq      %r14, %rdi                                    #426.4
        xorq      %r13, %r10                                    #426.4
        addq      %rsi, %r13                                    #426.4
        rolq      $35, %rsi                                     #426.4
        addq      %r10, %rbp                                    #426.4
        xorq      %r13, %rsi                                    #426.4
        addq      %r9, %rax                                     #426.4
        rolq      $25, %r14                                     #426.4
        addq      %rdx, %r13                                    #426.4
        rolq      $56, %r10                                     #426.4
        xorq      %rdi, %r14                                    #426.4
        rolq      $29, %r9                                      #426.4
        xorq      %rbp, %r10                                    #426.4
        xorq      %rax, %r9                                     #426.4
        addq      %r14, %rax                                    #426.4
        rolq      $8, %r14                                      #426.4
        addq      %rbx, %r10                                    #426.4
        movq      296(%rsp), %rbx                               #426.4[spill]
        addq      %r9, %rdi                                     #426.4
        rolq      $22, %r9                                      #426.4
        xorq      %rax, %r14                                    #426.4
        addq      %rbx, %rax                                    #426.4
        lea       10(%r12,%rsi), %r12                           #426.4
        movq      328(%rsp), %rsi                               #426.4[spill]
        addq      %r8, %r14                                     #426.4
        xorq      %rdi, %r9                                     #426.4
        addq      %rsi, %rdi                                    #426.4
        addq      %r12, %rax                                    #429.4
        addq      %r11, %r9                                     #426.4
        rolq      $37, %r12                                     #429.4
        addq      %r14, %r13                                    #429.4
        rolq      $46, %r14                                     #429.4
        addq      %r15, %rbp                                    #426.4
        addq      %r10, %rdi                                    #429.4
        xorq      %rax, %r12                                    #429.4
        rolq      $19, %r10                                     #429.4
        xorq      %r13, %r14                                    #429.4
        addq      %r9, %rbp                                     #429.4
        xorq      %rdi, %r10                                    #429.4
        rolq      $36, %r9                                      #429.4
        addq      %r12, %rdi                                    #429.4
        rolq      $27, %r12                                     #429.4
        xorq      %rbp, %r9                                     #429.4
        addq      %r14, %rbp                                    #429.4
        xorq      %rdi, %r12                                    #429.4
        rolq      $33, %r14                                     #429.4
        addq      %r10, %rax                                    #429.4
        rolq      $14, %r10                                     #429.4
        xorq      %rbp, %r14                                    #429.4
        xorq      %rax, %r10                                    #429.4
        addq      %r9, %r13                                     #429.4
        rolq      $42, %r9                                      #429.4
        addq      %r12, %rbp                                    #429.4
        rolq      $39, %r12                                     #429.4
        xorq      %r13, %r9                                     #429.4
        addq      %r10, %r13                                    #429.4
        xorq      %rbp, %r12                                    #429.4
        rolq      $36, %r10                                     #429.4
        addq      %r14, %rdi                                    #429.4
        xorq      %r13, %r10                                    #429.4
        addq      %r12, %r13                                    #429.4
        rolq      $9, %r12                                      #429.4
        addq      %r9, %rax                                     #429.4
        xorq      %r13, %r12                                    #429.4
        addq      %r10, %rbp                                    #429.4
        rolq      $17, %r14                                     #429.4
        addq      %r8, %r13                                     #429.4
        rolq      $49, %r9                                      #429.4
        xorq      %rdi, %r14                                    #429.4
        rolq      $54, %r10                                     #429.4
        xorq      %rax, %r9                                     #429.4
        addq      %r14, %rax                                    #429.4
        xorq      %rbp, %r10                                    #429.4
        rolq      $44, %r14                                     #429.4
        lea       11(%rcx,%r12), %r12                           #429.4
        movq      %rcx, 368(%rsp)                               #[spill]
        addq      %r9, %rdi                                     #429.4
        movq      288(%rsp), %rcx                               #429.4[spill]
        xorq      %rax, %r14                                    #429.4
        rolq      $56, %r9                                      #429.4
        addq      %rcx, %rax                                    #429.4
        addq      %r10, %rbx                                    #429.4
        addq      %r15, %r14                                    #429.4
        movq      352(%rsp), %r10                               #429.4[spill]
        xorq      %rdi, %r9                                     #429.4
        addq      %r10, %rdi                                    #429.4
        addq      %r12, %rax                                    #429.4
        rolq      $24, %r12                                     #429.4
        addq      %rsi, %r9                                     #429.4
        addq      %r14, %r13                                    #429.4
        addq      %r11, %rbp                                    #429.4
        rolq      $39, %r14                                     #429.4
        addq      %rbx, %rdi                                    #429.4
        rolq      $34, %rbx                                     #429.4
        xorq      %rax, %r12                                    #429.4
        xorq      %r13, %r14                                    #429.4
        addq      %r9, %rbp                                     #429.4
        rolq      $30, %r9                                      #429.4
        xorq      %rdi, %rbx                                    #429.4
        addq      %r12, %rdi                                    #429.4
        xorq      %rbp, %r9                                     #429.4
        rolq      $50, %r12                                     #429.4
        addq      %r14, %rbp                                    #429.4
        rolq      $13, %r14                                     #429.4
        xorq      %rdi, %r12                                    #429.4
        addq      %rbx, %rax                                    #429.4
        xorq      %rbp, %r14                                    #429.4
        rolq      $10, %rbx                                     #429.4
        addq      %r9, %r13                                     #429.4
        rolq      $17, %r9                                      #429.4
        xorq      %rax, %rbx                                    #429.4
        addq      %r12, %rbp                                    #429.4
        xorq      %r13, %r9                                     #429.4
        rolq      $43, %r12                                     #429.4
        addq      %rbx, %r13                                    #429.4
        rolq      $39, %rbx                                     #429.4
        xorq      %rbp, %r12                                    #429.4
        xorq      %r13, %rbx                                    #429.4
        addq      %r12, %r13                                    #429.4
        rolq      $35, %r12                                     #429.4
        addq      %r9, %rax                                     #429.4
        rolq      $29, %r9                                      #429.4
        xorq      %r13, %r12                                    #429.4
        addq      %r14, %rdi                                    #429.4
        xorq      %rax, %r9                                     #429.4
        rolq      $25, %r14                                     #429.4
        addq      %rbx, %rbp                                    #429.4
        xorq      %rdi, %r14                                    #429.4
        addq      %r9, %rdi                                     #429.4
        rolq      $22, %r9                                      #429.4
        addq      %r14, %rax                                    #429.4
        rolq      $56, %rbx                                     #429.4
        xorq      %rdi, %r9                                     #429.4
        rolq      $8, %r14                                      #429.4
        addq      %r10, %r9                                     #429.4
        xorq      %rbp, %rbx                                    #429.4
        lea       12(%rdx,%r12), %r10                           #429.4
        movq      360(%rsp), %r12                               #429.4[spill]
        xorq      %rax, %r14                                    #429.4
        addq      %r12, %rax                                    #429.4
        addq      %rbx, %rcx                                    #429.4
        movq      376(%rsp), %rbx                               #429.4[spill]
        addq      %r11, %r14                                    #429.4
        addq      %r15, %r13                                    #429.4
        addq      %rbx, %rdi                                    #429.4
        addq      %r10, %rax                                    #432.4
        addq      %rsi, %rbp                                    #429.4
        rolq      $37, %r10                                     #432.4
        addq      %r14, %r13                                    #432.4
        rolq      $46, %r14                                     #432.4
        addq      %rcx, %rdi                                    #432.4
        rolq      $19, %rcx                                     #432.4
        xorq      %rax, %r10                                    #432.4
        addq      %r9, %rbp                                     #432.4
        xorq      %r13, %r14                                    #432.4
        rolq      $36, %r9                                      #432.4
        xorq      %rdi, %rcx                                    #432.4
        addq      %r10, %rdi                                    #432.4
        xorq      %rbp, %r9                                     #432.4
        rolq      $27, %r10                                     #432.4
        addq      %r14, %rbp                                    #432.4
        rolq      $33, %r14                                     #432.4
        xorq      %rdi, %r10                                    #432.4
        addq      %rcx, %rax                                    #432.4
        addq      %r9, %r13                                     #432.4
        rolq      $14, %rcx                                     #432.4
        xorq      %rbp, %r14                                    #432.4
        rolq      $42, %r9                                      #432.4
        xorq      %rax, %rcx                                    #432.4
        addq      %r10, %rbp                                    #432.4
        xorq      %r13, %r9                                     #432.4
        rolq      $39, %r10                                     #432.4
        addq      %rcx, %r13                                    #432.4
        rolq      $36, %rcx                                     #432.4
        xorq      %rbp, %r10                                    #432.4
        addq      %r14, %rdi                                    #432.4
        addq      %r9, %rax                                     #432.4
        rolq      $17, %r14                                     #432.4
        xorq      %r13, %rcx                                    #432.4
        rolq      $49, %r9                                      #432.4
        addq      %r10, %r13                                    #432.4
        rolq      $9, %r10                                      #432.4
        xorq      %rdi, %r14                                    #432.4
        xorq      %rax, %r9                                     #432.4
        xorq      %r13, %r10                                    #432.4
        addq      %r14, %rax                                    #432.4
        addq      %r9, %rdi                                     #432.4
        rolq      $44, %r14                                     #432.4
        addq      %rcx, %rbp                                    #432.4
        rolq      $56, %r9                                      #432.4
        xorq      %rax, %r14                                    #432.4
        rolq      $54, %rcx                                     #432.4
        xorq      %rdi, %r9                                     #432.4
        addq      %rsi, %r14                                    #432.4
        addq      %rbx, %r9                                     #432.4
        xorq      %rbp, %rcx                                    #432.4
        addq      %r11, %r13                                    #432.4
        addq      352(%rsp), %rbp                               #432.4[spill]
        addq      %rcx, %r12                                    #432.4
        addq      344(%rsp), %rdi                               #432.4[spill]
        lea       13(%r8,%r10), %r10                            #432.4
        addq      312(%rsp), %rax                               #432.4[spill]
        addq      %r14, %r13                                    #432.4
        rolq      $39, %r14                                     #432.4
        addq      %r9, %rbp                                     #432.4
        rolq      $30, %r9                                      #432.4
        xorq      %r13, %r14                                    #432.4
        xorq      %rbp, %r9                                     #432.4
        addq      %r12, %rdi                                    #432.4
        rolq      $34, %r12                                     #432.4
        addq      %r10, %rax                                    #432.4
        rolq      $24, %r10                                     #432.4
        xorq      %rdi, %r12                                    #432.4
        xorq      %rax, %r10                                    #432.4
        addq      %r14, %rbp                                    #432.4
        rolq      $13, %r14                                     #432.4
        addq      %r9, %r13                                     #432.4
        rolq      $17, %r9                                      #432.4
        xorq      %rbp, %r14                                    #432.4
        addq      %r10, %rdi                                    #432.4
        addq      %r12, %rax                                    #432.4
        rolq      $50, %r10                                     #432.4
        xorq      %r13, %r9                                     #432.4
        rolq      $10, %r12                                     #432.4
        xorq      %rdi, %r10                                    #432.4
        xorq      %rax, %r12                                    #432.4
        addq      %r14, %rdi                                    #432.4
        rolq      $25, %r14                                     #432.4
        addq      %r9, %rax                                     #432.4
        rolq      $29, %r9                                      #432.4
        xorq      %rdi, %r14                                    #432.4
        movq      400(%rsp), %r15                               #432.4[spill]
        xorq      %rax, %r9                                     #432.4
        movq      368(%rsp), %rcx                               #432.4[spill]
        addq      %r12, %r13                                    #432.4
        movq      392(%rsp), %rsi                               #432.4[spill]
                                # LOE rax rdx rcx rbx rbp rsi rdi r8 r9 r10 r11 r12 r13 r14 r15
..B2.8:                         # Preds ..B2.9
                                # Execution count [5.56e+00]
        addq      %r10, %rbp                                    #432.4
        addq      %r14, %rax                                    #432.4
        rolq      $43, %r10                                     #432.4
        addq      %r9, %rdi                                     #432.4
        rolq      $39, %r12                                     #432.4
        xorq      %rbp, %r10                                    #432.4
        xorq      %r13, %r12                                    #432.4
        addq      %r10, %r13                                    #432.4
        rolq      $35, %r10                                     #432.4
        addq      %r12, %rbp                                    #432.4
        xorq      %r13, %r10                                    #432.4
        rolq      $56, %r12                                     #432.4
        rolq      $8, %r14                                      #432.4
        xorq      %rbp, %r12                                    #432.4
        movq      %rdx, 408(%rsp)                               #[spill]
        xorq      %rax, %r14                                    #432.4
        movq      %rsi, 392(%rsp)                               #[spill]
        lea       14(%rsi,%r10), %rsi                           #432.4
        movq      %r8, 416(%rsp)                                #[spill]
        addq      %rbx, %rbp                                    #432.4
        movq      312(%rsp), %rdx                               #432.4[spill]
        movq      304(%rsp), %r10                               #432.4[spill]
        addq      %r12, %rdx                                    #432.4
        movq      328(%rsp), %r8                                #432.4[spill]
        addq      %r10, %rax                                    #432.4
        rolq      $22, %r9                                      #432.4
        addq      %r8, %r13                                     #432.4
        addq      352(%rsp), %r14                               #432.4[spill]
        xorq      %rdi, %r9                                     #432.4
        addq      %rdx, %rdi                                    #432.4
        addq      %rsi, %rax                                    #435.4
        rolq      $37, %rsi                                     #435.4
        addq      %r14, %r13                                    #435.4
        movq      %r15, 400(%rsp)                               #[spill]
        addq      %rcx, %rdi                                    #435.4
        movq      344(%rsp), %r15                               #432.4[spill]
        addq      %r15, %r9                                     #432.4
        rolq      $46, %r14                                     #435.4
        xorq      %rax, %rsi                                    #435.4
        rolq      $19, %rdx                                     #435.4
        xorq      %r13, %r14                                    #435.4
        addq      %r9, %rbp                                     #435.4
        xorq      %rdi, %rdx                                    #435.4
        rolq      $36, %r9                                      #435.4
        addq      %rsi, %rdi                                    #435.4
        rolq      $27, %rsi                                     #435.4
        xorq      %rbp, %r9                                     #435.4
        addq      %r14, %rbp                                    #435.4
        xorq      %rdi, %rsi                                    #435.4
        rolq      $33, %r14                                     #435.4
        addq      %rdx, %rax                                    #435.4
        rolq      $14, %rdx                                     #435.4
        xorq      %rbp, %r14                                    #435.4
        xorq      %rax, %rdx                                    #435.4
        addq      %r9, %r13                                     #435.4
        rolq      $42, %r9                                      #435.4
        addq      %rsi, %rbp                                    #435.4
        rolq      $39, %rsi                                     #435.4
        xorq      %r13, %r9                                     #435.4
        addq      %rdx, %r13                                    #435.4
        xorq      %rbp, %rsi                                    #435.4
        rolq      $36, %rdx                                     #435.4
        addq      %r14, %rdi                                    #435.4
        xorq      %r13, %rdx                                    #435.4
        addq      %rsi, %r13                                    #435.4
        rolq      $9, %rsi                                      #435.4
        addq      %r9, %rax                                     #435.4
        xorq      %r13, %rsi                                    #435.4
        addq      %rdx, %rbp                                    #435.4
        rolq      $17, %r14                                     #435.4
        rolq      $49, %r9                                      #435.4
        xorq      %rdi, %r14                                    #435.4
        rolq      $54, %rdx                                     #435.4
        xorq      %rax, %r9                                     #435.4
        addq      %r14, %rax                                    #435.4
        xorq      %rbp, %rdx                                    #435.4
        rolq      $44, %r14                                     #435.4
        addq      %r9, %rdi                                     #435.4
        movq      %r11, 384(%rsp)                               #[spill]
        lea       15(%r11,%rsi), %r11                           #435.4
        movq      320(%rsp), %rsi                               #435.4[spill]
        xorq      %rax, %r14                                    #435.4
        rolq      $56, %r9                                      #435.4
        addq      %rsi, %rax                                    #435.4
        addq      %rdx, %r10                                    #435.4
        addq      %rbx, %r14                                    #435.4
        movq      408(%rsp), %rdx                               #435.4[spill]
        xorq      %rdi, %r9                                     #435.4
        addq      352(%rsp), %r13                               #435.4[spill]
        addq      %rdx, %rdi                                    #435.4
        addq      %r11, %rax                                    #435.4
        addq      %rcx, %r9                                     #435.4
        rolq      $24, %r11                                     #435.4
        addq      %r14, %r13                                    #435.4
        rolq      $39, %r14                                     #435.4
        addq      %r15, %rbp                                    #435.4
        addq      %r10, %rdi                                    #435.4
        xorq      %rax, %r11                                    #435.4
        rolq      $34, %r10                                     #435.4
        xorq      %r13, %r14                                    #435.4
        addq      %r9, %rbp                                     #435.4
        xorq      %rdi, %r10                                    #435.4
        rolq      $30, %r9                                      #435.4
        addq      %r11, %rdi                                    #435.4
        rolq      $50, %r11                                     #435.4
        xorq      %rbp, %r9                                     #435.4
        addq      %r14, %rbp                                    #435.4
        xorq      %rdi, %r11                                    #435.4
        rolq      $13, %r14                                     #435.4
        addq      %r10, %rax                                    #435.4
        rolq      $10, %r10                                     #435.4
        xorq      %rbp, %r14                                    #435.4
        xorq      %rax, %r10                                    #435.4
        addq      %r9, %r13                                     #435.4
        rolq      $17, %r9                                      #435.4
        addq      %r11, %rbp                                    #435.4
        rolq      $43, %r11                                     #435.4
        xorq      %r13, %r9                                     #435.4
        addq      %r10, %r13                                    #435.4
        xorq      %rbp, %r11                                    #435.4
        rolq      $39, %r10                                     #435.4
        addq      %r14, %rdi                                    #435.4
        xorq      %r13, %r10                                    #435.4
        addq      %r11, %r13                                    #435.4
        rolq      $35, %r11                                     #435.4
        addq      %r9, %rax                                     #435.4
        xorq      %r13, %r11                                    #435.4
        addq      %r10, %rbp                                    #435.4
        rolq      $25, %r14                                     #435.4
        addq      %rbx, %r13                                    #435.4
        rolq      $29, %r9                                      #435.4
        xorq      %rdi, %r14                                    #435.4
        rolq      $56, %r10                                     #435.4
        xorq      %rax, %r9                                     #435.4
        xorq      %rbp, %r10                                    #435.4
        addq      %r14, %rax                                    #435.4
        rolq      $8, %r14                                      #435.4
        addq      %r9, %rdi                                     #435.4
        rolq      $22, %r9                                      #435.4
        addq      %r10, %rsi                                    #435.4
        xorq      %rax, %r14                                    #435.4
        lea       16(%r8,%r11), %r10                            #435.4
        movq      400(%rsp), %r11                               #435.4[spill]
        xorq      %rdi, %r9                                     #435.4
        addq      %r11, %rax                                    #435.4
        addq      %r15, %r14                                    #435.4
        movq      416(%rsp), %r8                                #435.4[spill]
        addq      %rdx, %r9                                     #435.4
        addq      %r8, %rdi                                     #435.4
        addq      %r10, %rax                                    #438.4
        rolq      $37, %r10                                     #438.4
        addq      %r14, %r13                                    #438.4
        rolq      $46, %r14                                     #438.4
        addq      %r9, %rbp                                     #435.4
        addq      %rsi, %rdi                                    #438.4
        xorq      %rax, %r10                                    #438.4
        rolq      $19, %rsi                                     #438.4
        xorq      %r13, %r14                                    #438.4
        rolq      $36, %r9                                      #438.4
        addq      %rcx, %rbp                                    #438.4
        xorq      %rdi, %rsi                                    #438.4
        addq      %r10, %rdi                                    #438.4
        rolq      $27, %r10                                     #438.4
        xorq      %rbp, %r9                                     #438.4
        addq      %r14, %rbp                                    #438.4
        xorq      %rdi, %r10                                    #438.4
        rolq      $33, %r14                                     #438.4
        addq      %rsi, %rax                                    #438.4
        rolq      $14, %rsi                                     #438.4
        xorq      %rbp, %r14                                    #438.4
        xorq      %rax, %rsi                                    #438.4
        addq      %r9, %r13                                     #438.4
        rolq      $42, %r9                                      #438.4
        addq      %r10, %rbp                                    #438.4
        rolq      $39, %r10                                     #438.4
        xorq      %r13, %r9                                     #438.4
        addq      %rsi, %r13                                    #438.4
        xorq      %rbp, %r10                                    #438.4
        rolq      $36, %rsi                                     #438.4
        addq      %r14, %rdi                                    #438.4
        xorq      %r13, %rsi                                    #438.4
        addq      %r10, %r13                                    #438.4
        rolq      $9, %r10                                      #438.4
        addq      %r9, %rax                                     #438.4
        xorq      %r13, %r10                                    #438.4
        addq      %rsi, %rbp                                    #438.4
        rolq      $17, %r14                                     #438.4
        addq      %r15, %r13                                    #438.4
        movq      352(%rsp), %r12                               #438.4[spill]
        xorq      %rdi, %r14                                    #438.4
        rolq      $49, %r9                                      #438.4
        rolq      $54, %rsi                                     #438.4
        xorq      %rax, %r9                                     #438.4
        addq      %r14, %rax                                    #438.4
        xorq      %rbp, %rsi                                    #438.4
        rolq      $44, %r14                                     #438.4
        addq      %r9, %rdi                                     #438.4
        movq      160(%rsp), %r15                               #438.4[spill]
        xorq      %rax, %r14                                    #438.4
        rolq      $56, %r9                                      #438.4
        lea       17(%r12,%r10), %r12                           #438.4
        addq      %r15, %rax                                    #438.4
        addq      %rsi, %r11                                    #438.4
        movq      392(%rsp), %rsi                               #438.4[spill]
        addq      %rcx, %r14                                    #438.4
        xorq      %rdi, %r9                                     #438.4
        addq      %rsi, %rdi                                    #438.4
        addq      %r12, %rax                                    #438.4
        addq      %r8, %r9                                      #438.4
        rolq      $24, %r12                                     #438.4
        addq      %r14, %r13                                    #438.4
        rolq      $39, %r14                                     #438.4
        addq      %rdx, %rbp                                    #438.4
        addq      %r11, %rdi                                    #438.4
        xorq      %rax, %r12                                    #438.4
        rolq      $34, %r11                                     #438.4
        xorq      %r13, %r14                                    #438.4
        addq      %r9, %rbp                                     #438.4
        xorq      %rdi, %r11                                    #438.4
        rolq      $30, %r9                                      #438.4
        addq      %r12, %rdi                                    #438.4
        rolq      $50, %r12                                     #438.4
        xorq      %rbp, %r9                                     #438.4
        addq      %r14, %rbp                                    #438.4
        xorq      %rdi, %r12                                    #438.4
        rolq      $13, %r14                                     #438.4
        addq      %r11, %rax                                    #438.4
        rolq      $10, %r11                                     #438.4
        xorq      %rbp, %r14                                    #438.4
        xorq      %rax, %r11                                    #438.4
        addq      %r9, %r13                                     #438.4
        rolq      $17, %r9                                      #438.4
        addq      %r12, %rbp                                    #438.4
        rolq      $43, %r12                                     #438.4
        xorq      %r13, %r9                                     #438.4
        addq      %r11, %r13                                    #438.4
        xorq      %rbp, %r12                                    #438.4
        rolq      $39, %r11                                     #438.4
        addq      %r14, %rdi                                    #438.4
        xorq      %r13, %r11                                    #438.4
        addq      %r12, %r13                                    #438.4
        rolq      $35, %r12                                     #438.4
        addq      %r9, %rax                                     #438.4
        rolq      $25, %r14                                     #438.4
        xorq      %r13, %r12                                    #438.4
        rolq      $29, %r9                                      #438.4
        xorq      %rdi, %r14                                    #438.4
        xorq      %rax, %r9                                     #438.4
        addq      %r14, %rax                                    #438.4
        rolq      $8, %r14                                      #438.4
        addq      %r11, %rbp                                    #438.4
        rolq      $56, %r11                                     #438.4
        addq      %r9, %rdi                                     #438.4
        rolq      $22, %r9                                      #438.4
        xorq      %rax, %r14                                    #438.4
        xorq      %rdi, %r9                                     #438.4
        xorq      %rbp, %r11                                    #438.4
        movq      280(%rsp), %r10                               #466.3[spill]
        addq      %r13, %rcx                                    #438.4
        addq      264(%rsp), %rax                               #438.4[spill]
        addq      %r14, %rdx                                    #438.4
        addq      384(%rsp), %rdi                               #438.4[spill]
        addq      %rbp, %r8                                     #438.4
        addq      %r9, %rsi                                     #438.4
        addq      %r11, %r15                                    #438.4
        xorq      248(%rsp), %rcx                               #466.20[spill]
        lea       18(%rbx,%r12), %r9                            #438.4
        movq      $0xbfffffffffffffff, %rbx                     #476.3
        xorq      224(%rsp), %rdx                               #467.20[spill]
        xorq      240(%rsp), %rax                               #472.20[spill]
        xorq      232(%rsp), %r8                                #468.20[spill]
        xorq      208(%rsp), %rsi                               #469.20[spill]
        xorq      256(%rsp), %rdi                               #470.20[spill]
        xorq      216(%rsp), %r15                               #471.20[spill]
        xorq      200(%rsp), %r9                                #473.20[spill]
        andq      %rbx, 336(%rsp)                               #476.3[spill]
        movq      %rcx, 32(%r10)                                #466.3
        movq      %rdx, 40(%r10)                                #467.3
        movq      %r8, 48(%r10)                                 #468.3
        movq      %rsi, 56(%r10)                                #469.3
        movq      %rdi, 64(%r10)                                #470.3
        movq      %r15, 160(%rsp)                               #471.20[spill]
        movq      %r15, 72(%r10)                                #471.3
        movq      %rax, 80(%r10)                                #472.3
        movq      %r9, 88(%r10)                                 #473.3
        decq      176(%rsp)                                     #477.13[spill]
        jne       ..B2.4        # Prob 82%                      #477.13
                                # LOE rax rdx rcx rsi rdi r8 r9 r10
..B2.5:                         # Preds ..B2.8
                                # Execution count [1.00e+00]: Infreq
        movq      %r10, %r12                                    #
        movq      336(%rsp), %r10                               #[spill]
        movq      272(%rsp), %r11                               #[spill]
        movq      %r11, 16(%r12)                                #478.2
        movq      %r10, 24(%r12)                                #479.2
        addq      $424, %rsp                                    #480.1
	.cfi_def_cfa_offset 56
	.cfi_restore 6
        popq      %rbp                                          #480.1
	.cfi_def_cfa_offset 48
	.cfi_restore 3
        popq      %rbx                                          #480.1
	.cfi_def_cfa_offset 40
	.cfi_restore 15
        popq      %r15                                          #480.1
	.cfi_def_cfa_offset 32
	.cfi_restore 14
        popq      %r14                                          #480.1
	.cfi_def_cfa_offset 24
	.cfi_restore 13
        popq      %r13                                          #480.1
	.cfi_def_cfa_offset 16
	.cfi_restore 12
        popq      %r12                                          #480.1
	.cfi_def_cfa_offset 8
        ret                                                     #480.1
        .align    16,0x90
                                # LOE
	.cfi_endproc
# mark_end;
	.type	Skein_512_Process_Block,@function
	.size	Skein_512_Process_Block,.-Skein_512_Process_Block
..LNSkein_512_Process_Block.1:
	.data
# -- End  Skein_512_Process_Block
	.text
.L_2__routine_start_Skein1024_Process_Block_2:
# -- Begin  Skein1024_Process_Block
	.text
# mark_begin;
       .align    16,0x90
	.globl Skein1024_Process_Block
# --- Skein1024_Process_Block(Skein1024_Ctxt_t *, const uint8_t *, size_t, size_t)
Skein1024_Process_Block:
# parameter 1: %rdi
# parameter 2: %rsi
# parameter 3: %rdx
# parameter 4: %rcx
..B3.1:                         # Preds ..B3.0
                                # Execution count [1.00e+00]
	.cfi_startproc
..___tag_value_Skein1024_Process_Block.184:
..L185:
                                                        #503.1
        pushq     %rbp                                          #503.1
	.cfi_def_cfa_offset 16
        movq      %rsp, %rbp                                    #503.1
	.cfi_def_cfa 6, 16
	.cfi_offset 6, -16
        pushq     %r12                                          #503.1
        pushq     %r13                                          #503.1
        pushq     %r14                                          #503.1
        pushq     %r15                                          #503.1
        pushq     %rbx                                          #503.1
        subq      $792, %rsp                                    #503.1
	.cfi_offset 3, -56
	.cfi_offset 12, -24
	.cfi_offset 13, -32
	.cfi_offset 14, -40
	.cfi_offset 15, -48
        movq      %rdi, %r15                                    #503.1
        movq      %rcx, -384(%rbp)                              #503.1[spill]
        movq      %rdx, -376(%rbp)                              #503.1[spill]
        movq      %rsi, -224(%rbp)                              #503.1[spill]
        movq      16(%r15), %r8                                 #554.10
        movq      64(%r15), %r10                                #568.11
        movq      72(%r15), %r11                                #569.11
        movq      128(%r15), %rax                               #576.12
        movq      152(%r15), %r9                                #579.12
        movq      24(%r15), %r14                                #555.10
        movq      %r8, -704(%rbp)                               #554.2
        movq      %r9, -336(%rbp)                               #579.12[spill]
        movq      %r10, -344(%rbp)                              #568.11[spill]
        movq      %r11, -352(%rbp)                              #569.11[spill]
        movq      %rax, -360(%rbp)                              #576.12[spill]
        movq      %r14, -696(%rbp)                              #555.2
        movq      32(%r15), %rdx                                #564.11
        movq      40(%r15), %rcx                                #565.11
        movq      48(%r15), %rbx                                #566.11
        movq      56(%r15), %rsi                                #567.11
        movq      80(%r15), %rdi                                #570.11
        movq      88(%r15), %r8                                 #571.11
        movq      96(%r15), %r9                                 #572.11
        movq      104(%r15), %r10                               #573.11
        movq      112(%r15), %r11                               #574.12
        movq      120(%r15), %r12                               #575.12
        movq      136(%r15), %r13                               #577.12
        movq      144(%r15), %rax                               #578.12
        movq      %r15, -368(%rbp)                              #578.12[spill]
        jmp       ..B3.2        # Prob 100%                     #578.12
                                # LOE rax rdx rcx rbx rsi rdi r8 r9 r10 r11 r12 r13 r14
..B3.6:                         # Preds ..B3.5
                                # Execution count [4.56e+00]
        movq      %r14, -696(%rbp)                              #775.3
                                # LOE rax rdx rcx rbx rsi rdi r8 r9 r10 r11 r12 r13 r14
..B3.2:                         # Preds ..B3.6 ..B3.1
                                # Execution count [5.56e+00]
        movq      %rdx, -680(%rbp)                              #564.3
        xorq      %rcx, %rdx                                    #580.20
        xorq      %rbx, %rdx                                    #580.28
        xorq      %rsi, %rdx                                    #580.36
        movq      %rcx, -672(%rbp)                              #565.3
        movq      -344(%rbp), %rcx                              #568.3[spill]
        xorq      %rcx, %rdx                                    #581.7
        movq      %rbx, -664(%rbp)                              #566.3
        movq      -352(%rbp), %rbx                              #569.3[spill]
        xorq      %rbx, %rdx                                    #581.15
        xorq      %rdi, %rdx                                    #581.23
        xorq      %r8, %rdx                                     #581.31
        xorq      %r9, %rdx                                     #582.7
        xorq      %r10, %rdx                                    #582.15
        xorq      %r11, %rdx                                    #582.23
        xorq      %r12, %rdx                                    #582.32
        movq      %rsi, -656(%rbp)                              #567.3
        movq      -360(%rbp), %rsi                              #576.3[spill]
        xorq      %rsi, %rdx                                    #583.7
        xorq      %r13, %rdx                                    #583.16
        xorq      %rax, %rdx                                    #583.25
        movq      %rax, -568(%rbp)                              #578.3
        movq      -336(%rbp), %rax                              #579.3[spill]
        xorq      %rax, %rdx                                    #583.34
        movq      %rdi, -632(%rbp)                              #570.3
        movq      $0x1bd11bdaa9fc1a22, %rdi                     #583.43
        xorq      %rdi, %rdx                                    #583.43
        movq      %rdx, -552(%rbp)                              #580.3
        movq      -704(%rbp), %rdx                              #561.3
        addq      -384(%rbp), %rdx                              #561.3[spill]
        movq      %rdx, -704(%rbp)                              #561.3
        xorq      %r14, %rdx                                    #585.19
        movq      %rcx, -648(%rbp)                              #568.3
        movl      $128, %ecx                                    #588.3
        movq      %rbx, -640(%rbp)                              #569.3
        movq      %r8, -624(%rbp)                               #571.3
        movq      %r9, -616(%rbp)                               #572.3
        movq      %r10, -608(%rbp)                              #573.3
        movq      %r11, -600(%rbp)                              #574.3
        movq      %r12, -592(%rbp)                              #575.3
        movq      %rsi, -584(%rbp)                              #576.3
        movq      %r13, -576(%rbp)                              #577.3
        movq      %rax, -560(%rbp)                              #579.3
        movq      %rdx, -688(%rbp)                              #585.3
                                # LOE rcx
..B3.10:                        # Preds ..B3.10 ..B3.2
                                # Execution count [1.11e+01]
        movq      -224(%rbp), %rdx                              #588.3[spill]
        lea       (%rcx), %rax                                  #588.3
        movups    -16(%rdx,%rcx), %xmm0                         #588.3
        movups    %xmm0, -848(%rax,%rbp)                        #588.3
        movups    -32(%rdx,%rcx), %xmm1                         #588.3
        movups    %xmm1, -864(%rbp,%rax)                        #588.3
        movups    -48(%rdx,%rcx), %xmm2                         #588.3
        movups    %xmm2, -880(%rbp,%rcx)                        #588.3
        movups    -64(%rdx,%rcx), %xmm3                         #588.3
        movups    %xmm3, -896(%rbp,%rcx)                        #588.3
        subq      $64, %rcx                                     #588.3
        jne       ..B3.10       # Prob 50%                      #588.3
                                # LOE rcx
..B3.3:                         # Preds ..B3.10
                                # Execution count [5.56e+00]
        movq      -800(%rbp), %r8                               #596.9
        movq      -648(%rbp), %r9                               #596.16
        addq      %r8, %r9                                      #596.16
        movq      -792(%rbp), %r10                              #597.9
        movq      %r9, -192(%rbp)                               #596.16[spill]
        movq      -832(%rbp), %rdx                              #592.9
        movq      -680(%rbp), %rcx                              #592.16
        movq      -768(%rbp), %r9                               #600.9
        addq      %rdx, %rcx                                    #592.16
        movq      -616(%rbp), %rax                              #600.16
        addq      %r9, %rax                                     #600.16
        movq      %rcx, -136(%rbp)                              #592.16[spill]
        movq      %rax, -120(%rbp)                              #600.16[spill]
        movq      -824(%rbp), %rcx                              #593.9
        movq      -672(%rbp), %rbx                              #593.16
        movq      -736(%rbp), %rax                              #604.9
        addq      %rcx, %rbx                                    #593.16
        movq      -640(%rbp), %r11                              #597.16
        movq      %r10, -352(%rbp)                              #597.9[spill]
        addq      %r10, %r11                                    #597.16
        movq      %rbx, -216(%rbp)                              #593.16[spill]
        movq      -760(%rbp), %r10                              #601.9
        movq      -608(%rbp), %r14                              #601.16
        movq      -664(%rbp), %rsi                              #594.16
        addq      %r10, %r14                                    #601.16
        movq      -816(%rbp), %rbx                              #594.9
        addq      %rbx, %rsi                                    #594.16
        movq      %r14, -112(%rbp)                              #601.16[spill]
        movq      %rsi, -208(%rbp)                              #594.16[spill]
        movq      %r11, -184(%rbp)                              #597.16[spill]
        movq      %rax, -360(%rbp)                              #604.9[spill]
        movq      -584(%rbp), %r14                              #604.17
        movq      -752(%rbp), %r11                              #602.9
        addq      %rax, %r14                                    #604.17
        movq      -808(%rbp), %rsi                              #595.9
        movq      -656(%rbp), %rdi                              #595.16
        movq      -600(%rbp), %r15                              #602.17
        addq      %rsi, %rdi                                    #595.16
        movq      -576(%rbp), %rax                              #605.17
        addq      %r11, %r15                                    #602.17
        movq      %rdi, -200(%rbp)                              #595.16[spill]
        movq      %r8, -344(%rbp)                               #596.9[spill]
        movq      %r15, -176(%rbp)                              #602.17[spill]
        movq      -784(%rbp), %rdi                              #598.9
        movq      -632(%rbp), %r12                              #598.16
        movq      -776(%rbp), %r8                               #599.9
        addq      %rdi, %r12                                    #598.16
        movq      -624(%rbp), %r13                              #599.16
        movq      -568(%rbp), %r15                              #606.17
        addq      %r8, %r13                                     #599.16
        movq      %r12, -328(%rbp)                              #598.16[spill]
        movq      %r13, -128(%rbp)                              #599.16[spill]
        addq      -704(%rbp), %rax                              #605.17
        movq      -744(%rbp), %r12                              #603.9
        movq      -592(%rbp), %r13                              #603.17
        addq      %r12, %r13                                    #603.17
        movq      %r13, -104(%rbp)                              #603.17[spill]
        addq      -696(%rbp), %r15                              #606.17
        movq      -728(%rbp), %r13                              #605.9
        addq      %r13, %rax                                    #605.26
        movq      %r14, -168(%rbp)                              #604.17[spill]
        movq      %rax, -88(%rbp)                               #605.26[spill]
        movq      -712(%rbp), %r14                              #607.9
        movq      -720(%rbp), %rax                              #606.9
        addq      %rax, %r15                                    #606.26
        movq      %r15, -80(%rbp)                               #606.26[spill]
        movq      -560(%rbp), %r15                              #607.17
        movq      %r14, -336(%rbp)                              #607.9[spill]
        addq      %r14, %r15                                    #607.17
        movq      %r15, -96(%rbp)                               #607.17[spill]
        lea       -696(%rbp), %r14                              #677.12
        movq      $1, -144(%rbp)                                #677.8[spill]
        movq      $8, -152(%rbp)                                #677.12[spill]
        movq      %r14, -160(%rbp)                              #677.12[spill]
        movq      %rax, -232(%rbp)                              #677.12[spill]
        movq      %r13, -240(%rbp)                              #677.12[spill]
        movq      %r12, -248(%rbp)                              #677.12[spill]
        movq      %r11, -256(%rbp)                              #677.12[spill]
        movq      %r10, -264(%rbp)                              #677.12[spill]
        movq      %r9, -272(%rbp)                               #677.12[spill]
        movq      %r8, -280(%rbp)                               #677.12[spill]
        movq      %rdi, -288(%rbp)                              #677.12[spill]
        movq      %rbx, -304(%rbp)                              #677.12[spill]
        movq      %rcx, -312(%rbp)                              #677.12[spill]
        movq      %rdx, -320(%rbp)                              #677.12[spill]
        movq      %rsi, -296(%rbp)                              #677.12[spill]
        movq      %r14, %rcx                                    #677.12
        movq      -152(%rbp), %rax                              #677.12[spill]
        movq      -144(%rbp), %rdi                              #677.12[spill]
        movq      %r15, %r12                                    #677.12
        movq      -80(%rbp), %rdx                               #677.12[spill]
        movq      -88(%rbp), %r11                               #677.12[spill]
        movq      -104(%rbp), %r10                              #677.12[spill]
        movq      -112(%rbp), %r9                               #677.12[spill]
        movq      -120(%rbp), %rbx                              #677.12[spill]
        movq      -128(%rbp), %r8                               #677.12[spill]
        movq      -328(%rbp), %r14                              #677.12[spill]
        movq      -136(%rbp), %r13                              #677.12[spill]
                                # LOE rax rdx rcx rbx rdi r8 r9 r10 r11 r12 r13 r14
..B3.4:                         # Preds ..B3.4 ..B3.3
                                # Execution count [5.56e+01]
        movq      %rax, -152(%rbp)                              #[spill]
        addq      %r9, %rbx                                     #700.4
        movq      -216(%rbp), %rax                              #700.4[spill]
        addq      %rax, %r13                                    #700.4
        rolq      $24, %rax                                     #700.4
        addq      %r12, %rdx                                    #700.4
        rolq      $8, %r9                                       #700.4
        xorq      %r13, %rax                                    #700.4
        rolq      $37, %r12                                     #700.4
        addq      %r8, %r14                                     #700.4
        movq      %rcx, -160(%rbp)                              #[spill]
        xorq      %rbx, %r9                                     #700.4
        movq      %rdi, -144(%rbp)                              #[spill]
        xorq      %rdx, %r12                                    #700.4
        movq      %rax, -216(%rbp)                              #700.4[spill]
        addq      %r9, %r13                                     #700.4
        rolq      $47, %r8                                      #700.4
        movq      -200(%rbp), %rsi                              #700.4[spill]
        xorq      %r14, %r8                                     #700.4
        movq      -208(%rbp), %rcx                              #700.4[spill]
        movq      -184(%rbp), %rdi                              #700.4[spill]
        addq      %rsi, %rcx                                    #700.4
        movq      -192(%rbp), %rax                              #700.4[spill]
        movq      %rbx, -120(%rbp)                              #700.4[spill]
        addq      %rdi, %rax                                    #700.4
        rolq      $13, %rsi                                     #700.4
        rolq      $8, %rdi                                      #700.4
        xorq      %rcx, %rsi                                    #700.4
        movq      -176(%rbp), %rbx                              #700.4[spill]
        xorq      %rax, %rdi                                    #700.4
        addq      %r10, %rbx                                    #700.4
        addq      %r12, %rax                                    #700.4
        rolq      $17, %r10                                     #700.4
        addq      %rdi, %rdx                                    #700.4
        movq      -168(%rbp), %r15                              #700.4[spill]
        xorq      %rbx, %r10                                    #700.4
        rolq      $55, %r12                                     #700.4
        addq      %r11, %r15                                    #700.4
        rolq      $22, %r11                                     #700.4
        addq      %r8, %rbx                                     #700.4
        rolq      $38, %r9                                      #700.4
        xorq      %r15, %r11                                    #700.4
        rolq      $49, %r8                                      #700.4
        xorq      %rax, %r12                                    #700.4
        addq      %rsi, %r15                                    #700.4
        xorq      %r13, %r9                                     #700.4
        rolq      $18, %rsi                                     #700.4
        addq      %r10, %r14                                    #700.4
        rolq      $10, %r10                                     #700.4
        xorq      %rbx, %r8                                     #700.4
        movq      %r9, -112(%rbp)                               #700.4[spill]
        xorq      %r15, %rsi                                    #700.4
        movq      %rbx, -176(%rbp)                              #700.4[spill]
        addq      %r12, %r15                                    #700.4
        movq      -216(%rbp), %rbx                              #700.4[spill]
        xorq      %r14, %r10                                    #700.4
        movq      -120(%rbp), %r9                               #700.4[spill]
        addq      %r11, %rcx                                    #700.4
        addq      %rbx, %r9                                     #700.4
        addq      %r8, %r13                                     #700.4
        movq      %r9, -120(%rbp)                               #700.4[spill]
        addq      %rsi, %rax                                    #700.4
        rolq      $34, %r12                                     #700.4
        rolq      $23, %rdi                                     #700.4
        xorq      %r15, %r12                                    #700.4
        movq      %r15, -168(%rbp)                              #700.4[spill]
        xorq      %rdx, %rdi                                    #700.4
        movq      %r9, %r15                                     #700.4
        rolq      $19, %r11                                     #700.4
        addq      %r10, %r15                                    #700.4
        rolq      $59, %r10                                     #700.4
        xorq      %rcx, %r11                                    #700.4
        rolq      $33, %r8                                      #700.4
        addq      %rdi, %rcx                                    #700.4
        rolq      $4, %rdi                                      #700.4
        xorq      %r15, %r10                                    #700.4
        movq      %r12, -96(%rbp)                               #700.4[spill]
        xorq      %r13, %r8                                     #700.4
        addq      %r12, %r13                                    #700.4
        xorq      %rcx, %rdi                                    #700.4
        movq      -152(%rbp), %r12                              #700.4[spill]
        addq      %r10, %rcx                                    #700.4
        rolq      $52, %rbx                                     #700.4
        addq      %r11, %rdx                                    #700.4
        rolq      $20, %r10                                     #700.4
        xorq      %r9, %rbx                                     #700.4
        rolq      $51, %rsi                                     #700.4
        xorq      %rcx, %r10                                    #700.4
        movq      %r8, -128(%rbp)                               #700.4[spill]
        xorq      %rax, %rsi                                    #700.4
        movq      -176(%rbp), %r8                               #700.4[spill]
        addq      %rbx, %r14                                    #700.4
        movq      -112(%rbp), %r9                               #700.4[spill]
        addq      %r9, %r8                                      #700.4
        rolq      $41, %r11                                     #700.4
        addq      %rdi, %r15                                    #700.4
        movq      %r8, -176(%rbp)                               #700.4[spill]
        xorq      %rdx, %r11                                    #700.4
        rolq      $13, %rbx                                     #700.4
        rolq      $17, %r9                                      #700.4
        xorq      %r14, %rbx                                    #700.4
        addq      -592(%rbp,%r12), %r10                         #700.4
        xorq      %r8, %r9                                      #700.4
        movq      %r13, -136(%rbp)                              #700.4[spill]
        addq      %r11, %r14                                    #700.4
        movq      %r8, %r13                                     #700.4
        addq      %rbx, %rdx                                    #700.4
        addq      %rsi, %r13                                    #700.4
        addq      %r9, %rax                                     #700.4
        rolq      $16, %rsi                                     #700.4
        movq      %r15, -120(%rbp)                              #700.4[spill]
        xorq      %r13, %rsi                                    #700.4
        movq      %r10, -104(%rbp)                              #700.4[spill]
        movq      -168(%rbp), %r15                              #700.4[spill]
        movq      -128(%rbp), %r8                               #700.4[spill]
        addq      %r8, %r15                                     #700.4
        movq      -160(%rbp), %r10                              #700.4[spill]
        rolq      $48, %r11                                     #700.4
        movq      %r13, -176(%rbp)                              #700.4[spill]
        xorq      %r14, %r11                                    #700.4
        rolq      $25, %r8                                      #700.4
        rolq      $47, %rbx                                     #700.4
        xorq      %r15, %r8                                     #700.4
        movq      -96(%rbp), %r13                               #700.4[spill]
        xorq      %rdx, %rbx                                    #700.4
        rolq      $5, %r13                                      #700.4
        rolq      $41, %r9                                      #700.4
        movq      %rdx, -80(%rbp)                               #700.4[spill]
        xorq      %rax, %r9                                     #700.4
        movq      %r11, -88(%rbp)                               #700.4[spill]
        movq      -136(%rbp), %r11                              #700.4[spill]
        xorq      %r11, %r13                                    #700.4
        movq      -664(%rbp,%r12), %rdx                         #700.4
        addq      %rcx, %rdx                                    #700.4
        movq      -648(%rbp,%r12), %rcx                         #700.4
        movq      %r15, -168(%rbp)                              #700.4[spill]
        addq      %rax, %rcx                                    #700.4
        movq      -616(%rbp,%r12), %rax                         #700.4
        movq      -632(%rbp,%r12), %r15                         #700.4
        addq      -624(%rbp,%r12), %r8                          #700.4
        addq      %r14, %r15                                    #700.4
        movq      -600(%rbp,%r12), %r14                         #700.4
        addq      %r8, %r15                                     #700.4
        addq      144(%r10), %r13                               #700.4
        .byte     102                                           #700.4
        .byte     144                                           #700.4
        addq      -608(%rbp,%r12), %r9                          #700.4
        movq      -680(%rbp,%r12), %r10                         #700.4
        addq      %r10, %r11                                    #700.4
        addq      -120(%rbp), %rax                              #700.4[spill]
        addq      -176(%rbp), %r14                              #700.4[spill]
        addq      %r9, %rax                                     #700.4
        rolq      $31, %r8                                      #700.4
        addq      -672(%rbp,%r12), %rbx                         #700.4
        xorq      %r15, %r8                                     #700.4
        movq      %r10, -72(%rbp)                               #700.4[spill]
        addq      %rbx, %r11                                    #700.4
        rolq      $12, %r9                                      #700.4
        movq      -104(%rbp), %r10                              #700.4[spill]
        addq      %r10, %r14                                    #700.4
        rolq      $47, %r10                                     #700.4
        xorq      %rax, %r9                                     #700.4
        rolq      $41, %rbx                                     #700.4
        xorq      %r14, %r10                                    #700.4
        addq      %r8, %r14                                     #700.4
        xorq      %r11, %rbx                                    #700.4
        rolq      $4, %r8                                       #700.4
        addq      %r9, %r11                                     #700.4
        rolq      $16, %r9                                      #700.4
        xorq      %r14, %r8                                     #700.4
        xorq      %r11, %r9                                     #700.4
        addq      %r8, %r11                                     #700.4
        rolq      $31, %r8                                      #700.4
        addq      %r9, %r14                                     #700.4
        addq      -144(%rbp), %r13                              #700.4[spill]
        xorq      %r11, %r8                                     #700.4
        rolq      $25, %r9                                      #700.4
        addq      %r10, %r15                                    #700.4
        rolq      $28, %rdi                                     #700.4
        xorq      %r14, %r9                                     #700.4
        rolq      $56, %r10                                     #700.4
        addq      %rbx, %rax                                    #700.4
        movq      %r8, -128(%rbp)                               #700.4[spill]
        xorq      %r15, %r10                                    #700.4
        movq      %r14, -56(%rbp)                               #700.4[spill]
        movq      -568(%rbp,%r12), %r8                          #700.4
        movq      -584(%rbp,%r12), %r14                         #700.4
        movq      %r13, -96(%rbp)                               #700.4[spill]
        movq      -576(%rbp,%r12), %r13                         #700.4
        xorq      -120(%rbp), %rdi                              #700.4[spill]
        rolq      $41, %rbx                                     #700.4
        .byte     15                                            #700.4
        .byte     31                                            #700.4
        .byte     0                                             #700.4
        addq      -696(%rbp,%r12), %r8                          #700.4
        xorq      %rax, %rbx                                    #700.4
        addq      -168(%rbp), %r14                              #700.4[spill]
        addq      %r10, %rax                                    #700.4
        movq      %r13, -168(%rbp)                              #700.4[spill]
        addq      %rbx, %r15                                    #700.4
        .byte     102                                           #700.4
        .byte     144                                           #700.4
        addq      -656(%rbp,%r12), %rsi                         #700.4
        addq      -640(%rbp,%r12), %rdi                         #700.4
        addq      %rsi, %rdx                                    #700.4
        addq      -704(%rbp,%r12), %r13                         #700.4
        addq      %rdi, %rcx                                    #700.4
        rolq      $44, %r10                                     #700.4
        movq      -80(%rbp), %r12                               #700.4[spill]
        xorq      %rax, %r10                                    #700.4
        addq      %r8, %r12                                     #700.4
        movq      %rax, -64(%rbp)                               #700.4[spill]
        movq      -96(%rbp), %rax                               #700.4[spill]
        addq      %rax, %r12                                    #700.4
        rolq      $30, %rax                                     #700.4
        addq      -88(%rbp), %r13                               #700.4[spill]
        xorq      %r12, %rax                                    #700.4
        rolq      $9, %rsi                                      #700.4
        addq      %r13, %r14                                    #700.4
        rolq      $37, %rdi                                     #700.4
        xorq      %rdx, %rsi                                    #700.4
        rolq      $44, %r13                                     #700.4
        xorq      %rcx, %rdi                                    #700.4
        addq      %rax, %rcx                                    #700.4
        xorq      %r14, %r13                                    #700.4
        rolq      $51, %rax                                     #700.4
        addq      %rsi, %r14                                    #700.4
        rolq      $53, %rsi                                     #700.4
        xorq      %rcx, %rax                                    #700.4
        addq      %r13, %rdx                                    #700.4
        xorq      %r14, %rsi                                    #700.4
        rolq      $34, %r13                                     #700.4
        addq      %rax, %r14                                    #700.4
        rolq      $19, %rax                                     #700.4
        xorq      %rdx, %r13                                    #700.4
        rolq      $46, %rbx                                     #700.4
        addq      %rdi, %r12                                    #700.4
        rolq      $42, %rdi                                     #700.4
        xorq      %r14, %rax                                    #700.4
        xorq      %r15, %rbx                                    #700.4
        xorq      %r12, %rdi                                    #700.4
        addq      %r13, %r12                                    #700.4
        addq      %rax, %r11                                    #700.4
        rolq      $42, %r13                                     #700.4
        addq      %rdi, %rdx                                    #700.4
        movq      %rax, -96(%rbp)                               #700.4[spill]
        xorq      %r12, %r13                                    #700.4
        movq      -152(%rbp), %rax                              #700.4[spill]
        addq      %rbx, %r12                                    #700.4
        rolq      $23, %rbx                                     #700.4
        addq      %rsi, %rcx                                    #700.4
        xorq      %r12, %rbx                                    #700.4
        addq      %r13, %r15                                    #700.4
        rolq      $44, %rdi                                     #700.4
        rolq      $47, %rsi                                     #700.4
        xorq      %rdx, %rdi                                    #700.4
        addq      -664(%rbp,%rax), %rbx                         #700.4
        xorq      %rcx, %rsi                                    #700.4
        addq      %r10, %rdx                                    #700.4
        addq      %r9, %rcx                                     #700.4
        rolq      $48, %r10                                     #700.4
        rolq      $52, %r9                                      #700.4
        xorq      %rdx, %r10                                    #700.4
        movq      %rbx, -216(%rbp)                              #700.4[spill]
        xorq      %rcx, %r9                                     #700.4
        addq      %rdi, -64(%rbp)                               #700.4[spill]
        addq      %rsi, -56(%rbp)                               #700.4[spill]
        rolq      $37, %rsi                                     #700.4
        rolq      $31, %rdi                                     #700.4
        movq      -656(%rbp,%rax), %rbx                         #700.4
        addq      %rdx, %rbx                                    #700.4
        movq      -640(%rbp,%rax), %rdx                         #700.4
        addq      %rcx, %rdx                                    #700.4
        movq      -592(%rbp,%rax), %rcx                         #700.4
        xorq      -56(%rbp), %rsi                               #700.4[spill]
        xorq      -64(%rbp), %rdi                               #700.4[spill]
        .byte     144                                           #700.4
        addq      -56(%rbp), %rcx                               #700.4[spill]
        addq      -648(%rbp,%rax), %rsi                         #700.4
        addq      -632(%rbp,%rax), %rdi                         #700.4
        rolq      $35, %r13                                     #700.4
        movq      %rcx, -176(%rbp)                              #700.4[spill]
        xorq      %r15, %r13                                    #700.4
        movq      -160(%rbp), %rcx                              #700.4[spill]
        .byte     144                                           #700.4
        movq      %r8, -88(%rbp)                                #700.4[spill]
        movq      %r12, -80(%rbp)                               #700.4[spill]
        movq      %rsi, -200(%rbp)                              #700.4[spill]
        movq      %rdi, -184(%rbp)                              #700.4[spill]
        movq      %r11, -136(%rbp)                              #700.4[spill]
        movq      -96(%rbp), %r12                               #700.4[spill]
        movq      -688(%rbp,%rax), %rdi                         #700.4
        movq      -712(%rbp,%rax), %rsi                         #700.4
        movq      -128(%rbp), %r8                               #700.4[spill]
        addq      %r8, %r14                                     #700.4
        rolq      $9, %r12                                      #700.4
        rolq      $20, %r8                                      #700.4
        movq      -88(%rbp), %r11                               #700.4[spill]
        xorq      %r14, %r8                                     #700.4
        movq      %rdi, -552(%rbp,%rax)                         #700.4
        addq      %r13, %r11                                    #700.4
        movq      -136(%rbp), %r13                              #700.4[spill]
        xorq      %r13, %r12                                    #700.4
        movq      %rsi, -688(%rbp,%rax)                         #700.4
        addq      %r14, -168(%rbp)                              #700.4[spill]
        movq      -624(%rbp,%rax), %r14                         #700.4
        addq      %r15, %r14                                    #700.4
        .byte     15                                            #700.4
        .byte     31                                            #700.4
        .byte     64                                            #700.4
        .byte     0                                             #700.4
        movq      -560(%rbp,%rax), %r15                         #700.4
        addq      %rsi, %r15                                    #700.4
        movq      152(%rcx), %rsi                               #700.4
        addq      $16, %rcx                                     #677.30
        movq      -72(%rbp), %rdi                               #700.4[spill]
        movq      %rbx, -208(%rbp)                              #700.4[spill]
        movq      %rdi, -544(%rbp,%rax)                         #700.4
        lea       1(%rsi,%r12), %r12                            #700.4
        movq      -608(%rbp,%rax), %rbx                         #700.4
        movq      -144(%rbp), %rdi                              #700.4[spill]
        addq      %rdi, %r12                                    #700.4
        .byte     144                                           #700.4
        movq      -704(%rbp,%rax), %rsi                         #700.4
        addq      $2, %rdi                                      #677.30
        movq      %rdx, -192(%rbp)                              #700.4[spill]
        movq      -80(%rbp), %rdx                               #700.4[spill]
        addq      -64(%rbp), %rbx                               #700.4[spill]
        addq      %r15, %rdx                                    #700.4
        .byte     102                                           #700.4
        .byte     144                                           #700.4
        addq      -616(%rbp,%rax), %r8                          #700.4
        addq      -600(%rbp,%rax), %r9                          #700.4
        .byte     144                                           #700.4
        addq      -584(%rbp,%rax), %r10                         #700.4
        addq      -672(%rbp,%rax), %r13                         #700.4
        movq      %rsi, -680(%rbp,%rax)                         #700.4
        addq      $16, %rax                                     #677.30
        cmpq      $20, %rdi                                     #677.20
        jbe       ..B3.4        # Prob 90%                      #677.20
                                # LOE rax rdx rcx rbx rdi r8 r9 r10 r11 r12 r13 r14
..B3.5:                         # Preds ..B3.4
                                # Execution count [5.56e+00]
        movq      %rdx, -80(%rbp)                               #[spill]
        movq      -232(%rbp), %rax                              #[spill]
        movq      %r14, -328(%rbp)                              #[spill]
        movq      -344(%rbp), %r14                              #760.21[spill]
        xorq      -80(%rbp), %rax                               #770.22[spill]
        movq      -352(%rbp), %r15                              #761.21[spill]
        xorq      -192(%rbp), %r14                              #760.21[spill]
        movq      %r12, -96(%rbp)                               #[spill]
        movq      %rax, -232(%rbp)                              #770.22[spill]
        movq      %r10, -104(%rbp)                              #[spill]
        movq      -248(%rbp), %r12                              #[spill]
        xorq      -184(%rbp), %r15                              #761.21[spill]
        movq      -336(%rbp), %rax                              #771.22[spill]
        movq      %r14, -344(%rbp)                              #760.21[spill]
        movq      -368(%rbp), %r14                              #756.3[spill]
        xorq      -104(%rbp), %r12                              #767.22[spill]
        xorq      -96(%rbp), %rax                               #771.22[spill]
        movq      %r15, -352(%rbp)                              #761.21[spill]
        movq      -360(%rbp), %r15                              #768.22[spill]
        movq      %r12, -248(%rbp)                              #767.22[spill]
        movq      %rax, -336(%rbp)                              #771.22[spill]
        movq      %r11, -88(%rbp)                               #[spill]
        movq      %r9, -112(%rbp)                               #[spill]
        movq      %rbx, -120(%rbp)                              #[spill]
        movq      %r8, -128(%rbp)                               #[spill]
        movq      %r13, -136(%rbp)                              #[spill]
        xorq      -168(%rbp), %r15                              #768.22[spill]
        movq      -344(%rbp), %r12                              #760.3[spill]
        movq      -352(%rbp), %rax                              #761.3[spill]
        movq      -240(%rbp), %r13                              #[spill]
        movq      -256(%rbp), %r11                              #[spill]
        movq      -264(%rbp), %r10                              #[spill]
        movq      -272(%rbp), %r9                               #[spill]
        movq      -280(%rbp), %r8                               #[spill]
        movq      -288(%rbp), %rdi                              #[spill]
        movq      -296(%rbp), %rsi                              #[spill]
        movq      -304(%rbp), %rbx                              #[spill]
        movq      -312(%rbp), %rcx                              #[spill]
        movq      -320(%rbp), %rdx                              #[spill]
        movq      %r15, -360(%rbp)                              #768.22[spill]
        movq      %r12, 64(%r14)                                #760.3
        movq      %rax, 72(%r14)                                #761.3
        movq      %r15, 128(%r14)                               #768.3
        xorq      -136(%rbp), %rdx                              #756.21[spill]
        xorq      -216(%rbp), %rcx                              #757.21[spill]
        xorq      -208(%rbp), %rbx                              #758.21[spill]
        xorq      -200(%rbp), %rsi                              #759.21[spill]
        xorq      -328(%rbp), %rdi                              #762.21[spill]
        xorq      -128(%rbp), %r8                               #763.21[spill]
        xorq      -120(%rbp), %r9                               #764.21[spill]
        xorq      -112(%rbp), %r10                              #765.21[spill]
        xorq      -176(%rbp), %r11                              #766.22[spill]
        xorq      -88(%rbp), %r13                               #769.22[spill]
        movq      -248(%rbp), %r12                              #767.3[spill]
        movq      -232(%rbp), %rax                              #770.3[spill]
        movq      -336(%rbp), %r15                              #771.3[spill]
        movq      %rdx, 32(%r14)                                #756.3
        movq      %rcx, 40(%r14)                                #757.3
        movq      %rbx, 48(%r14)                                #758.3
        movq      %rsi, 56(%r14)                                #759.3
        movq      %rdi, 80(%r14)                                #762.3
        movq      %r8, 88(%r14)                                 #763.3
        movq      %r9, 96(%r14)                                 #764.3
        movq      %r10, 104(%r14)                               #765.3
        movq      %r11, 112(%r14)                               #766.3
        movq      %r12, 120(%r14)                               #767.3
        movq      %r13, 136(%r14)                               #769.3
        movq      %rax, 144(%r14)                               #770.3
        movq      %r15, 152(%r14)                               #771.3
        movq      -696(%rbp), %r14                              #775.3
        addq      $128, -224(%rbp)                              #776.3[spill]
        btrq      $62, %r14                                     #775.3
        decq      -376(%rbp)                                    #777.13[spill]
        jne       ..B3.6        # Prob 82%                      #777.13
                                # LOE rax rdx rcx rbx rsi rdi r8 r9 r10 r11 r12 r13 r14
..B3.7:                         # Preds ..B3.5
                                # Execution count [1.00e+00]: Infreq
        movq      -368(%rbp), %r15                              #[spill]
        movq      -704(%rbp), %rax                              #778.16
        movq      %rax, 16(%r15)                                #778.2
        movq      %r14, 24(%r15)                                #779.2
        lea       -40(%rbp), %rsp                               #780.1
	.cfi_restore 3
        popq      %rbx                                          #780.1
	.cfi_restore 15
        popq      %r15                                          #780.1
	.cfi_restore 14
        popq      %r14                                          #780.1
	.cfi_restore 13
        popq      %r13                                          #780.1
	.cfi_restore 12
        popq      %r12                                          #780.1
        popq      %rbp                                          #780.1
	.cfi_restore 6
        ret                                                     #780.1
        .align    16,0x90
                                # LOE
	.cfi_endproc
# mark_end;
	.type	Skein1024_Process_Block,@function
	.size	Skein1024_Process_Block,.-Skein1024_Process_Block
..LNSkein1024_Process_Block.2:
	.data
# -- End  Skein1024_Process_Block
	.data
	.section .note.GNU-stack, ""
# End
